(icnt
node
p0
(dp1
S'url'
p2
S'http://www.amazon.com/Blood-Bones-Butter-Inadvertent-Education/dp/140006872X/ref=pd_sim_b_1'
p3
sS'rating'
p4
F4.0
sS'authorlist'
p5
(lp6
S'Gabrielle Hamilton'
p7
asS'blist'
p8
(lp9
(icnt
node
p10
(dp11
g2
S'http://www.amazon.com/Life-Line-Chasing-Greatness-Redefining/dp/1592406017/ref=pd_sim_b_1'
p12
sS'title'
p13
S'Life, on the Line: A Chef&#39;s Story of Chasing Greatness, Facing Death, and Redefining the Way We Eat (Hardcover)'
p14
sba(icnt
node
p15
(dp16
g2
S'http://www.amazon.com/Heat-Adventures-Pasta-Maker-Apprentice-Dante-Quoting/dp/1400034477/ref=pd_sim_b_2'
p17
sg13
S'Heat: An Amateur&#39;s Adventures as Kitchen Slave, Line Cook, Pasta-Maker, and Apprentice to a Dante-Quoting Butcher in Tuscany (Vintage) (Paperback)'
p18
sba(icnt
node
p19
(dp20
g2
S'http://www.amazon.com/My-Korean-Deli-Risking-Convenience/dp/0805093435/ref=pd_sim_b_3'
p21
sg13
S'My Korean Deli: Risking It All for a Convenience Store (Hardcover)'
p22
sba(icnt
node
p23
(dp24
g2
S'http://www.amazon.com/Devil-Kitchen-Madness-Making-Great/dp/1596914971/ref=pd_sim_b_4'
p25
sg13
S'The Devil in the Kitchen: Sex, Pain, Madness, and the Making of a Great Chef (Paperback)'
p26
sba(icnt
node
p27
(dp28
g2
S'http://www.amazon.com/Sorcerers-Apprentices-Season-Kitchen-elBulli/dp/1439175551/ref=pd_sim_b_5'
p29
sg13
S'The Sorcerer&#39;s Apprentices: A Season in the Kitchen at Ferran Adri\xe0&#39;s elBulli (Hardcover)'
p30
sba(icnt
node
p31
(dp32
g2
S'http://www.amazon.com/Three-Stages-Amazement-Carol-Edgarian/dp/1439198306/ref=pd_sim_b_6'
p33
sg13
S'Three Stages of Amazement: A Novel (Hardcover)'
p34
sbasg13
S'Blood, Bones & Butter: The Inadvertent Education of a Reluctant Chef (Hardcover)'
p35
sb.