(icnt
node
p0
(dp1
S'url'
p2
S'http://www.amazon.com/Life-Line-Chasing-Greatness-Redefining/dp/1592406017/ref=pd_sim_b_1'
p3
sS'rating'
p4
F4.7999999999999998
sS'authorlist'
p5
(lp6
S'Grant Achatz'
p7
aS'Nick Kokonas'
p8
asS'blist'
p9
(lp10
(icnt
node
p11
(dp12
g2
S'http://www.amazon.com/Blood-Bones-Butter-Inadvertent-Education/dp/140006872X/ref=pd_sim_b_1'
p13
sS'title'
p14
S'Blood, Bones & Butter: The Inadvertent Education of a Reluctant Chef (Hardcover)'
p15
sba(icnt
node
p16
(dp17
g2
S'http://www.amazon.com/Alinea-Grant-Achatz/dp/1580089283/ref=pd_sim_b_2'
p18
sg14
S'Alinea (Hardcover)'
p19
sba(icnt
node
p20
(dp21
g2
S'http://www.amazon.com/Ferran-Inside-Story-Bulli-Reinvented/dp/B004KAB32K/ref=pd_sim_b_3'
p22
sg14
S'Ferran: The Inside Story of El Bulli and the Man Who Reinvented Food (Hardcover)'
p23
sba(icnt
node
p24
(dp25
g2
S'http://www.amazon.com/Sorcerers-Apprentices-Season-Kitchen-elBulli/dp/1439175551/ref=pd_sim_b_4'
p26
sg14
S'The Sorcerer&#39;s Apprentices: A Season in the Kitchen at Ferran Adri\xe0&#39;s elBulli (Hardcover)'
p27
sba(icnt
node
p28
(dp29
g2
S'http://www.amazon.com/Ideas-Food-Great-Recipes-They/dp/0307717402/ref=pd_sim_b_5'
p30
sg14
S'Ideas in Food: Great Recipes and Why They Work (Hardcover)'
p31
sba(icnt
node
p32
(dp33
g2
S'http://www.amazon.com/Noma-Time-Place-Nordic-Cuisine/dp/0714859036/ref=pd_sim_b_6'
p34
sg14
S'Noma: Time and Place in Nordic Cuisine (Hardcover)'
p35
sbasg14
S"Life, on the Line: A Chef's Story of Chasing Greatness, Facing Death, and Redefining the Way We Eat"
p36
sb.