(dp0
Vhttp://www.amazon.com/Principles-Microeconomics-9th-Karl-Case/dp/013605885X/ref=pd_sim_b_2
p1
F1.0
sVhttp://www.amazon.com/Early-Writings-Penguin-Classics-Karl/dp/0140445749/ref=pd_sim_b_6
p2
F1.0
sVhttp://www.amazon.com/Hoof-Prints-Stories-Proud-Spirit/dp/1561644129/ref=pd_sim_b_1
p3
F1.0
sVhttp://www.amazon.com/Private-Lives-Public-Consequences-Personality/dp/067401877X/ref=pd_sim_b_3
p4
I0
sVhttp://www.amazon.com/Pendulum-Swing-Larry-J-Sabato/dp/0205098924/ref=pd_sim_b_2
p5
F1.0
sVhttp://www.amazon.com/HONK-If-Paying-Your-Mortgage/dp/B001UFQ47C/ref=pd_sim_auto_6
p6
F1.0
sVhttp://www.amazon.com/Obama-Nation-Jerome-R-Corsi/dp/1439189692/ref=pd_sim_b_3
p7
F1.0
sVhttp://www.amazon.com/Original-Intent-Courts-Constitution-Religion/dp/1932225633/ref=pd_sim_b_6
p8
F1.0
sVhttp://www.amazon.com/Found-Dogs-Tales-Strays-Landed/dp/B001LNOOLG/ref=pd_sim_b_2
p9
F1.0
sVhttp://www.amazon.com/Blueprint-Subvert-Constitution-Imperial-Presidency/dp/0762761342/ref=pd_sim_b_3
p10
F1.0
sVhttp://www.amazon.com/Cosmic-War-Interplanetary-Warfare-Physics/dp/1931882754/ref=pd_sim_b_2
p11
F1.0
sVhttp://www.amazon.com/Lady-Unicorn-Novel-Tracy-Chevalier/dp/0452285453/ref=pd_sim_b_2
p12
F1.0
sVhttp://www.amazon.com/Book-Virtues-Young-People-Treasury/dp/0689816138/ref=pd_sim_b_4
p13
F1.0
sVhttp://www.amazon.com/23-Minutes-Hell-Bill-Wiese/dp/1591858828/ref=pd_sim_b_1
p14
F1.0
sVhttp://www.amazon.com/Idiots-Unplugged-Glenn-Beck/dp/1442333960/ref=pd_sim_b_5
p15
F1.0
sVhttp://www.amazon.com/Once-Upon-Country-Palestinian-Life/dp/B002N2XE7Y/ref=pd_sim_b_1
p16
I0
sVhttp://www.amazon.com/Mornings-Horseback-Extraordinary-Vanished-Roosevelt/dp/0671447548/ref=pd_sim_b_3
p17
F1.0
sVhttp://www.amazon.com/One-Minute-After-You-Die/dp/0802463126/ref=pd_sim_b_3
p18
F1.0
sVhttp://www.amazon.com/Condoleezza-Rice-Memoir-Extraordinary-Ordinary/dp/038573879X/ref=pd_sim_b_4
p19
I0
sVhttp://www.amazon.com/American-Politics-Today-Core-Second/dp/0393934721/ref=pd_sim_b_4
p20
I0
sVhttp://www.amazon.com/Prophecy-Answer-Book-David-Jeremiah/dp/1404187812/ref=pd_sim_b_2
p21
I0
sVhttp://www.amazon.com/Angels-Call-Inspiring-True-Stories/dp/0736927409/ref=pd_sim_b_1
p22
I0
sVhttp://www.amazon.com/Principles-Economics-N-Gregory-Mankiw/dp/0324589972/ref=pd_sim_b_4
p23
F1.0
sVhttp://www.amazon.com/New-Intellectual-Philosophy-Anniversary-Signet/dp/0451163087/ref=pd_sim_b_2
p24
F1.0
sVhttp://www.amazon.com/Philosophic-Manuscripts-Communist-Manifesto-Philosophy/dp/087975446X/ref=pd_sim_b_4
p25
F1.0
sVhttp://www.amazon.com/Soul-Battle-Ancient-Liberators-Vanquished/dp/0385720599/ref=pd_sim_b_4
p26
F1.0
sVhttp://www.amazon.com/Inside-Revolution-Study-Guide-Followers/dp/1414333250/ref=pd_sim_b_4
p27
F1.0
sVhttp://www.amazon.com/Heavy-Metal-Time-Activity-Book/dp/155022798X/ref=pd_sim_b_1
p28
I0
sVhttp://www.amazon.com/Obama-1-20-2013-1-20-13-bumper-sticker/dp/B00228KSPU/ref=pd_sim_t_2
p29
F1.0
sVhttp://www.amazon.com/Microeconometrics-Methods-Applications-Colin-Cameron/dp/0521848059/ref=pd_sim_b_4
p30
I0
sVhttp://www.amazon.com/Democracy-State-Directions-Critical-Theory/dp/0231152981/ref=pd_sim_b_4
p31
F0.28104575163398693
sVhttp://www.amazon.com/Dereliction-Duty-Eyewitness-Compromised-Americas/dp/0895260603/ref=pd_sim_b_4
p32
F1.0
sVhttp://www.amazon.com/LBJ-Conspiracy-Kill-Kennedy-Coalescence/dp/1935487183/ref=pd_sim_b_5
p33
F1.0
sVhttp://www.amazon.com/Christmas-Sweater-Glenn-Beck/dp/141659485X/ref=pd_sim_b_6
p34
F0.51515151515151514
sVhttp://www.amazon.com/Way-Master-Basic-Training-Course/dp/1933591013/ref=pd_sim_b_2
p35
F1.0
sVhttp://www.amazon.com/History-Money-Banking-United-States/dp/0945466331/ref=pd_sim_b_4
p36
F1.0
sVhttp://www.amazon.com/Essential-American-Documents-Speeches-Should/dp/1596986433/ref=pd_sim_b_6
p37
F1.0
sVhttp://www.amazon.com/Popes-Bankers-Cultural-History-Aristotle/dp/B004IEA3HE/ref=pd_sim_b_5
p38
F1.0
sVhttp://www.amazon.com/Stealth-Jihad-Radical-Subverting-America/dp/1596985569/ref=pd_sim_b_1
p39
F1.0
sVhttp://www.amazon.com/Obama-Diaries-Laura-Ingraham/dp/1439197512/ref=pd_sim_b_2
p40
F1.0
sVhttp://www.amazon.com/Democracy-Education-Introduction-Philosophy/dp/1936041871/ref=pd_sim_b_3
p41
F1.0
sVhttp://www.amazon.com/Great-American-Hypocrites-Toppling-Republican/dp/0307408663/ref=pd_sim_b_2
p42
F1.0
sVhttp://www.amazon.com/Real-America-Messages-Heart-Heartland/dp/B003E7ESYK/ref=pd_sim_b_5
p43
F1.0
sVhttp://www.amazon.com/Heaven-Study-Guide-Randy-Alcorn/dp/1414309775/ref=pd_sim_b_1
p44
F1.0
sVhttp://www.amazon.com/Authority-Law-Essays-Morality/dp/0199573573/ref=pd_sim_b_3
p45
F1.0
sVhttp://www.amazon.com/Power-People-Laura-Ingraham/dp/B001O0D1P6/ref=pd_sim_b_6
p46
F1.0
sVhttp://www.amazon.com/Sarahs-Key-Tatiana-Rosnay/dp/0312370849/ref=pd_sim_b_2
p47
I0
sVhttp://www.amazon.com/Accoutrements-Emergency-Yodel-Button/dp/B001J7HBVY/ref=pd_sim_t_4
p48
F1.0
sVhttp://www.amazon.com/Serpent-Paradise-Incredible-Rebellion-Purposes/dp/0802427200/ref=pd_sim_b_4
p49
F1.0
sVhttp://www.amazon.com/Hoodwinked-Intellectual-Hucksters-Hijacked-American/dp/1595552863/ref=pd_sim_b_3
p50
F1.0
sVhttp://www.amazon.com/Deconstructing-Obama-Americas-Postmodern-President/dp/1451611110/ref=pd_sim_b_6
p51
F1.0
sVhttp://www.amazon.com/Macroeconomics-Private-James-D-Gwartney/dp/0538754281/ref=pd_sim_b_2
p52
F0.8666666666666667
sVhttp://www.amazon.com/Reason-Hope-Spiritual-Jane-Goodall/dp/B000LP66V6/ref=pd_sim_b_5
p53
I0
sVhttp://www.amazon.com/Financial-Accounting-Introduction-Concepts-Methods/dp/0324651147/ref=pd_sim_b_3
p54
I0
sVhttp://www.amazon.com/Copper-Scroll-Political-Thrillers/dp/1414303475/ref=pd_sim_b_4
p55
F1.0
sVhttp://www.amazon.com/Accidental-Guerrilla-Fighting-Small-Midst/dp/0195368347/ref=pd_sim_b_3
p56
I0
sVhttp://www.amazon.com/Still-Takes-Candidate-Women-Office/dp/0521179246/ref=pd_sim_b_6
p57
F1.0
sVhttp://www.amazon.com/What-Americans-Really-Want-Really-Dreams/dp/B003XU7W1E/ref=pd_sim_b_4
p58
F1.0
sVhttp://www.amazon.com/Outrage-Immigration-Congressional-Overcharges-Protection/dp/0061373931/ref=pd_sim_b_6
p59
F1.0
sVhttp://www.amazon.com/Simple-Christmas-Stories-Celebrate-Holiday/dp/B0042P56OO/ref=pd_sim_b_5
p60
F1.0
sVhttp://www.amazon.com/Fountainhead-Cliffs-Notes-Andrew-Bernstein/dp/0764585584/ref=pd_sim_b_2
p61
F1.0
sVhttp://www.amazon.com/Goodness-God-Assurance-Purpose-Suffering/dp/1601423438/ref=pd_sim_b_6
p62
F1.0
sVhttp://www.amazon.com/Becoming-Naomi-Leon-Munoz-Ryan/dp/0439269970/ref=pd_sim_b_3
p63
F1.0
sVhttp://www.amazon.com/22-Immutable-Laws-Marketing-Violate/dp/0887306667/ref=pd_sim_b_3
p64
F1.0
sVhttp://www.amazon.com/Accidental-Theorist-Dispatches-Dismal-Science/dp/0393318877/ref=pd_sim_b_6
p65
F1.0
sVhttp://www.amazon.com/Broken-Government-Republican-Destroyed-Legislative/dp/B001VEHZTS/ref=pd_sim_b_1
p66
F1.0
sVhttp://www.amazon.com/Economic-Theory-Gary-Becker/dp/0202309800/ref=pd_sim_b_6
p67
I0
sVhttp://www.amazon.com/Cat-Miracles-Inspirational-Stories-Remarkable/dp/B002YX0B82/ref=pd_sim_b_3
p68
I0
sVhttp://www.amazon.com/Million-Dollar-Strike-Dan-Gutman/dp/0786837519/ref=pd_sim_b_2
p69
F1.0
sVhttp://www.amazon.com/Political-Mind-Cognitive-Scientists-Politics/dp/0143115685/ref=pd_sim_b_1
p70
F1.0
sVhttp://www.amazon.com/Win-Principles-Business-Ordinary-Extraordinary/dp/1401323995/ref=pd_sim_b_2
p71
F1.0
sVhttp://www.amazon.com/Leaders-Richard-Nixon/dp/0446512494/ref=pd_sim_b_4
p72
F1.0
sVhttp://www.amazon.com/Benjamin-Franklin-American-Walter-Isaacson/dp/074325807X/ref=pd_sim_b_3
p73
I0
sVhttp://www.amazon.com/Macro-Printed-Access-Review-Cards/dp/1439040672/ref=pd_sim_b_4
p74
I0
sVhttp://www.amazon.com/How-Capitalism-Will-Save-Us/dp/0307463095/ref=pd_sim_b_1
p75
I0
sVhttp://www.amazon.com/110-People-Screwing-America-Franken/dp/0060761296/ref=pd_sim_b_5
p76
F1.0
sVhttp://www.amazon.com/God-Love-Lifetime-Walking-Jesus/dp/0310240085/ref=pd_sim_b_2
p77
F1.0
sVhttp://www.amazon.com/Because-They-Hate-Survivor-Islamic/dp/0312358385/ref=pd_sim_b_1
p78
I0
sVhttp://www.amazon.com/Macroeconomics-6th-Andrew-B-Abel/dp/032141554X/ref=pd_sim_b_6
p79
I0
sVhttp://www.amazon.com/ACLU-vs-America-Exposing-Redefine/dp/0805440453/ref=pd_sim_b_6
p80
I0
sVhttp://www.amazon.com/Wealth-Nations-Bantam-Classics/dp/0553585975/ref=pd_sim_b_5
p81
F1.0
sVhttp://www.amazon.com/Shut-Up-Sing-Hollywood-Subverting/dp/0895260816/ref=pd_sim_b_2
p82
F1.0
sVhttp://www.amazon.com/Inside-American-Education-Thomas-Sowell/dp/0743254082/ref=pd_sim_b_5
p83
F1.0
sVhttp://www.amazon.com/Constitution-Exile-Federal-Government-Rewriting/dp/1595550704/ref=pd_sim_b_3
p84
F1.0
sVhttp://www.amazon.com/DUPES-Americas-Adversaries-Manipulated-Progressives/dp/1935191756/ref=pd_sim_b_4
p85
F1.0
sVhttp://www.amazon.com/Nullification-Resist-Federal-Tyranny-Century/dp/1596981490/ref=pd_sim_b_1
p86
I0
sVhttp://www.amazon.com/Million-Dollar-Financial-Advisor-Strategies-Producers/dp/0814414729/ref=pd_sim_b_2
p87
I0
sVhttp://www.amazon.com/Selling-Big-Companies-Jill-Konrath/dp/1419515624/ref=pd_sim_b_1
p88
F1.0
sVhttp://www.amazon.com/Economics-Macro-Issues-Roger-Miller/dp/0321594541/ref=pd_sim_b_2
p89
F1.0
sVhttp://www.amazon.com/Empowered-Employees-Energize-Customers-Transform/dp/1422155633/ref=pd_sim_b_1
p90
I0
sVhttp://www.amazon.com/Origins-Virtue-Instincts-Evolution-Cooperation/dp/0140264450/ref=pd_sim_b_4
p91
F1.0
sVhttp://www.amazon.com/Late-Great-United-States-Prophecy/dp/B0044KN5DG/ref=pd_sim_b_2
p92
F1.0
sVhttp://www.amazon.com/Economics-Public-Issues-Roger-Miller/dp/032159455X/ref=pd_sim_b_2
p93
F1.0
sVhttp://www.amazon.com/Taking-Sides-Clashing-Global-Expanded/dp/0077381920/ref=pd_sim_b_2
p94
I0
sVhttp://www.amazon.com/Man-Picture-Susan-Hill/dp/B004KAB5QO/ref=pd_sim_b_1
p95
F1.0
sVhttp://www.amazon.com/2012-Bible-World-Mark-Hitchcock/dp/0736926518/ref=pd_sim_b_5
p96
F1.0
sVhttp://www.amazon.com/Aftershock-Next-Economy-Americas-Future/dp/0307592812/ref=pd_sim_b_1
p97
F1.0
sVhttp://www.amazon.com/5000-Year-Leap-Original-Authorized/dp/0880801484/ref=pd_sim_b_5
p98
I0
sVhttp://www.amazon.com/Pennys-Christmas-Miracle-Jason-Wright/dp/1606411675/ref=pd_sim_b_5
p99
F1.0
sVhttp://www.amazon.com/Grace-Truth-Paradox-Responding-Christlike/dp/1590520653/ref=pd_sim_b_2
p100
F1.0
sVhttp://www.amazon.com/Ripples-Battle-Still-Determine-Fight/dp/0385721943/ref=pd_sim_b_5
p101
F1.0
sVhttp://www.amazon.com/America-Last-Best-Hope-Volumes/dp/1595551255/ref=pd_sim_b_1
p102
F1.0
sVhttp://www.amazon.com/Moonwalk-First-Trip-Moon-Step-Into-Reading/dp/0394824571/ref=pd_sim_b_1
p103
I0
sVhttp://www.amazon.com/Ideas-Action-Featuring-Commandments-Negotiation/dp/0578057956/ref=pd_sim_b_1
p104
F1.0
sVhttp://www.amazon.com/Economic-Sophisms-Frederic-Bastiat/dp/1445507641/ref=pd_sim_b_2
p105
F1.0
sVhttp://www.amazon.com/Living-End-Times-Slavoj-Zizek/dp/184467598X/ref=pd_sim_b_3
p106
F1.0
sVhttp://www.amazon.com/Blinded-Right-Ex-Conservative-David-Brock/dp/1400047285/ref=pd_sim_b_2
p107
I0
sVhttp://www.amazon.com/33-Ruthless-Rules-Local-Advertising/dp/096673839X/ref=pd_sim_b_6
p108
I0
sVhttp://www.amazon.com/Future-Illusion-Sigmund-Freud/dp/1891396382/ref=pd_sim_b_2
p109
F1.0
sVhttp://www.amazon.com/Eloquence-Electronic-Age-Transformation-Speechmaking/dp/0195063171/ref=pd_sim_b_1
p110
F1.0
sVhttp://www.amazon.com/Dont-Start-Revolution-Without-Me/dp/1602397163/ref=pd_sim_b_6
p111
F1.0
sVhttp://www.amazon.com/Pedagogy-Hope-Reliving-Oppressed-Continuum/dp/0826477909/ref=pd_sim_b_5
p112
F1.0
sVhttp://www.amazon.com/Dont-Start-Revolution-Without-Me/dp/1602397163/ref=pd_sim_b_1
p113
F1.0
sVhttp://www.amazon.com/Atlas-Shrugged-Cliffs-Andrew-Bernstein/dp/0764585568/ref=pd_sim_b_2
p114
F1.0
sVhttp://www.amazon.com/Logic-Life-Rational-Economics-Irrational/dp/0812977874/ref=pd_sim_b_1
p115
I0
sVhttp://www.amazon.com/Joni-Unforgettable-Story-Eareckson-Tada/dp/0310240018/ref=pd_sim_b_1
p116
F1.0
sVhttp://www.amazon.com/Curtain-Went-Pants-Fell-Zipzer/dp/0448442671/ref=pd_sim_b_4
p117
F1.0
sVhttp://www.amazon.com/Christmas-Sweater-Picture-Book/dp/1416995439/ref=pd_sim_b_1
p118
F1.0
sVhttp://www.amazon.com/Mice-Beans-bkshelf-Scholastic-Bookshelf/dp/0439701368/ref=pd_sim_b_1
p119
F1.0
sVhttp://www.amazon.com/Ethical-Issues-Modern-Medicine-Contemporary/dp/0073407356/ref=pd_sim_b_2
p120
I0
sVhttp://www.amazon.com/Schools-Our-Children-Deserve-Traditional/dp/0618083456/ref=pd_sim_b_1
p121
F1.0
sVhttp://www.amazon.com/Gossamer-Lois-Lowry/dp/0385734166/ref=pd_sim_b_2
p122
F1.0
sVhttp://www.amazon.com/Its-Glass-Ceiling-Sticky-Floor/dp/0071493948/ref=pd_sim_b_1
p123
F1.0
sVhttp://www.amazon.com/Revolution-Manifesto-Ron-Paul/dp/0446537527/ref=pd_sim_b_1
p124
F1.0
sVhttp://www.amazon.com/Wheres-Birth-Certificate-Eligible-President/dp/1936488299/ref=pd_sim_b_1
p125
F1.0
sVhttp://www.amazon.com/Rediscovering-God-America-Reflections-Nations/dp/B00150GI28/ref=pd_sim_b_4
p126
F1.0
sVhttp://www.amazon.com/Institutions-American-Democracy-Press/dp/0195309146/ref=pd_sim_b_5
p127
F1.0
sVhttp://www.amazon.com/America-Alone-End-World-Know/dp/1596985275/ref=pd_sim_b_5
p128
F1.0
sVhttp://www.amazon.com/Eco-nomics-Everyone-Should-Economics-Environment/dp/1930865449/ref=pd_sim_b_5
p129
F1.0
sVhttp://www.amazon.com/Ron-Browns-Body-Presidency-Hillarys/dp/B000C4SSW6/ref=pd_sim_b_4
p130
F1.0
sVhttp://www.amazon.com/How-Economy-Grows-Why-Crashes/dp/047052670X/ref=pd_sim_b_1
p131
F1.0
sVhttp://www.amazon.com/Home-Again-Novel-Kristin-Hannah/dp/0449226352/ref=pd_sim_b_2
p132
F1.0
sVhttp://www.amazon.com/Communist-Hypothesis-Alain-Badiou/dp/1844676005/ref=pd_sim_b_1
p133
F1.0
sVhttp://www.amazon.com/Leo-Snow-Leopard-Craig-Hatkoff/dp/0545229278/ref=pd_sim_b_5
p134
F1.0
sVhttp://www.amazon.com/Mapping-Pennys-World-Loreen-Leedy/dp/0805072624/ref=pd_sim_b_2
p135
F1.0
sVhttp://www.amazon.com/Personal-Odyssey-Thomas-Sowell/dp/0684864657/ref=pd_sim_b_2
p136
F1.0
sVhttp://www.amazon.com/Return-Primitive-Anti-Industrial-Revolution/dp/0452011841/ref=pd_sim_b_6
p137
F0.84615384615384615
sVhttp://www.amazon.com/Fall-House-Bush-Believers-Executive/dp/074328075X/ref=pd_sim_b_1
p138
F1.0
sVhttp://www.amazon.com/Microsoft-Office-PowerPoint-2007-Techniques/dp/1418843466/ref=pd_sim_b_1
p139
F1.0
sVhttp://www.amazon.com/Rise-Theodore-Roosevelt-Edmund-Morris/dp/1400069653/ref=pd_sim_b_1
p140
F1.0
sVhttp://www.amazon.com/Indian-Givers-Indians-Americas-Transformed/dp/0449904962/ref=pd_sim_b_1
p141
I0
sVhttp://www.amazon.com/Liberty-Essays-Oxford-Worlds-Classics/dp/0199535736/ref=pd_sim_b_4
p142
F1.0
sVhttp://www.amazon.com/Americas-Women-Drudges-Helpmates-Heroines/dp/0061227226/ref=pd_sim_b_1
p143
I0
sVhttp://www.amazon.com/American-Jihad-Terrorists-Living-Among/dp/0743234359/ref=pd_sim_b_2
p144
I0
sVhttp://www.amazon.com/Anthem-Expanded-50th-Anniversary-Rand/dp/0452281253/ref=pd_sim_b_4
p145
F0.82417582417582413
sVhttp://www.amazon.com/Miracle-Cure-Americas-Health-Care-Crisis/dp/0936488921/ref=pd_sim_b_5
p146
F1.0
sVhttp://www.amazon.com/If-God-Good-Study-Guide/dp/1601423454/ref=pd_sim_b_1
p147
F1.0
sVhttp://www.amazon.com/Mythology-Voyage-David-Adams-Leeming/dp/0195119576/ref=pd_sim_b_3
p148
I0
sVhttp://www.amazon.com/Atlas-American-History-Rand-McNally/dp/0528845004/ref=pd_sim_b_4
p149
I0
sVhttp://www.amazon.com/Democrats-Had-Brains-Theyd-Republicans/dp/B002ECEVOI/ref=pd_sim_b_1
p150
F1.0
sVhttp://www.amazon.com/Wealth-Nations-Books-Penguin-Classics/dp/0140436154/ref=pd_sim_b_4
p151
F1.0
sVhttp://www.amazon.com/Democrats-Had-Brains-Theyd-Republicans/dp/B002ECEVOI/ref=pd_sim_b_4
p152
F1.0
sVhttp://www.amazon.com/Political-Economy-Media-Enduring-Emerging/dp/1583671617/ref=pd_sim_b_2
p153
I0
sVhttp://www.amazon.com/Secret-Life-Ping-Pong-Wizard-Zipzer/dp/044843749X/ref=pd_sim_b_4
p154
F1.0
sVhttp://www.amazon.com/Voice-Reason-Objectivist-Thought-Library/dp/0452010462/ref=pd_sim_b_6
p155
F0.82417582417582413
sVhttp://www.amazon.com/My-Enemys-Cradle-Sara-Young/dp/0156034336/ref=pd_sim_b_2
p156
F1.0
sVhttp://www.amazon.com/Obamas-Wars-Bob-Woodward/dp/B004MKLRRO/ref=pd_sim_b_5
p157
F1.0
sVhttp://www.amazon.com/Thinking-Points-Communicating-American-Values/dp/B003F76IEW/ref=pd_sim_b_5
p158
F1.0
sVhttp://www.amazon.com/Whose-Freedom-Battle-Americas-Important/dp/B002PJ4HG2/ref=pd_sim_b_3
p159
F1.0
sVhttp://www.amazon.com/Grant-Comes-East-Gettysburg-Gingrich/dp/0312987269/ref=pd_sim_b_1
p160
F1.0
sVhttp://www.amazon.com/Tale-Two-Tails-Hank-Zipzer/dp/0448443783/ref=pd_sim_b_3
p161
F1.0
sVhttp://www.amazon.com/Little-Bee-Novel-Chris-Cleave/dp/1416589643/ref=pd_sim_b_6
p162
F1.0
sVhttp://www.amazon.com/Diplomats-Wife-Pam-Jenoff/dp/0778325121/ref=pd_sim_b_1
p163
I0
sVhttp://www.amazon.com/Paint-Wind-Pam-Munoz-Ryan/dp/054510176X/ref=pd_sim_b_1
p164
F1.0
sVhttp://www.amazon.com/Disappearances-Novel-Howard-Frank-Mosher/dp/0618694064/ref=pd_sim_b_2
p165
F1.0
sVhttp://www.amazon.com/Chasing-Goldman-Sachs-Masters-Universe/dp/0307460118/ref=pd_sim_b_1
p166
F1.0
sVhttp://www.amazon.com/Sales-Strategy-Fundamentals-Better-Performance/dp/0972291415/ref=pd_sim_b_3
p167
F1.0
sVhttp://www.amazon.com/Crimes-Against-Liberty-Indictment-President/dp/1596986247/ref=pd_sim_b_3
p168
F1.0
sVhttp://www.amazon.com/Overton-Window-Glenn-Beck/dp/1451625286/ref=pd_sim_b_4
p169
F1.0
sVhttp://www.amazon.com/Nudities-Meridian-Aesthetics-Giorgio-Agamben/dp/0804769508/ref=pd_sim_b_4
p170
F1.0
sVhttp://www.amazon.com/Great-Contraction-1929-1933-Princeton-Editions/dp/0691137943/ref=pd_sim_b_4
p171
F1.0
sVhttp://www.amazon.com/After-Ball-America-Conquer-Hatred/dp/0452264987/ref=pd_sim_b_6
p172
F1.0
sVhttp://www.amazon.com/Forgotten-Garden-Novel-Kate-Morton/dp/1416550550/ref=pd_sim_b_6
p173
F1.0
sVhttp://www.amazon.com/CourseBook-Gwartney-Stroup-Macphersons-Macroeconomics/dp/0538452277/ref=pd_sim_b_2
p174
F0.8666666666666667
sVhttp://www.amazon.com/Family-Secrets-Americas-Invisible-Government/dp/1608190064/ref=pd_sim_b_1
p175
F1.0
sVhttp://www.amazon.com/Ancestors-Tale-Pilgrimage-Dawn-Evolution/dp/061861916X/ref=pd_sim_b_3
p176
F1.0
sVhttp://www.amazon.com/Top-Myths-American-Health-Care/dp/193427612X/ref=pd_sim_b_4
p177
F1.0
sVhttp://www.amazon.com/Owen-Mzee-Story-Remarkable-Friendship/dp/0439829739/ref=pd_sim_b_4
p178
F0.93333333333333335
sVhttp://www.amazon.com/More-Cambridge-History-Political-Thought/dp/0521525403/ref=pd_sim_b_4
p179
F1.0
sVhttp://www.amazon.com/Owen-Mzee-Story-Remarkable-Friendship/dp/0439829739/ref=pd_sim_b_1
p180
F0.93333333333333335
sVhttp://www.amazon.com/Holotropic-Breathwork-Self-Exploration-Transpersonal-Humanistic/dp/1438433948/ref=pd_sim_b_4
p181
I0
sVhttp://www.amazon.com/Try-Mens-Souls-Washington-American/dp/B003STCQ8O/ref=pd_sim_b_1
p182
F1.0
sVhttp://www.amazon.com/Stranger-Kingdom-Howard-Frank-Mosher/dp/B003IWYKNK/ref=pd_sim_b_4
p183
F1.0
sVhttp://www.amazon.com/Introduction-Objectivist-Epistemology-Expanded-Second/dp/0452010306/ref=pd_sim_b_5
p184
F1.0
sVhttp://www.amazon.com/Hard-Core-Pleasure-Visible-Expanded/dp/0520219430/ref=pd_sim_b_1
p185
I0
sVhttp://www.amazon.com/Justice-Hedgehogs-Ronald-Dworkin/dp/0674046714/ref=pd_sim_b_1
p186
F1.0
sVhttp://www.amazon.com/Complete-Infidels-Guide-Koran/dp/1596981040/ref=pd_sim_b_1
p187
F1.0
sVhttp://www.amazon.com/Complete-Infidels-Guide-Koran/dp/1596981040/ref=pd_sim_b_2
p188
F1.0
sVhttp://www.amazon.com/Animal-Camp-Lessons-Rescued-Animals/dp/1616080116/ref=pd_sim_b_1
p189
I0
sVhttp://www.amazon.com/Fundamentals-Nursing-Enhanced-Multi-Media-Package/dp/0323080839/ref=pd_sim_b_2
p190
F1.0
sVhttp://www.amazon.com/Assyrian-Christ-Return-Shadow-Degrees/dp/1600346480/ref=pd_sim_b_3
p191
F1.0
sVhttp://www.amazon.com/Late-Great-USA-American-Threat/dp/B002RAR3TC/ref=pd_sim_b_5
p192
F1.0
sVhttp://www.amazon.com/Kokos-Kitten-Reading-Rainbow-Book/dp/0590444255/ref=pd_sim_b_6
p193
F1.0
sVhttp://www.amazon.com/Summer-School-Genius-Thought-Zipzer/dp/0448437392/ref=pd_sim_b_3
p194
F1.0
sVhttp://www.amazon.com/Its-Not-Easy-Being-God/dp/0615414737/ref=pd_sim_b_2
p195
I0
sVhttp://www.amazon.com/Purity-Principle-Safeguards-Dangerous-LifeChange/dp/1590521951/ref=pd_sim_b_2
p196
F1.0
sVhttp://www.amazon.com/SNAP-Selling-Business-Frazzled-Customers/dp/1591843308/ref=pd_sim_b_1
p197
F1.0
sVhttp://www.amazon.com/Governing-Commons-Evolution-Institutions-Collective/dp/0521405998/ref=pd_sim_b_1
p198
F1.0
sVhttp://www.amazon.com/Atlas-Shrugged-Ayn-Rand/dp/0451191145
p199
F1.0
sVhttp://www.amazon.com/Discovering-Computers-2010-Digital-Fundamentals/dp/0495806382/ref=pd_sim_b_4
p200
F1.0
sVhttp://www.amazon.com/Glenn-Becks-Common-Sense-Control/dp/1439168571/ref=pd_sim_b_4
p201
F1.0
sVhttp://www.amazon.com/Radiance-Alyson-No%C3%ABl/dp/0312629176/ref=pd_sim_b_4
p202
F1.0
sVhttp://www.amazon.com/Idea-Essay-Rhetoric-Reader-Handbook/dp/0495802115/ref=pd_sim_b_5
p203
F1.0
sVhttp://www.amazon.com/First-Strike-Flight-Attack-America/dp/B0009A2OFK/ref=pd_sim_b_5
p204
F1.0
sVhttp://www.amazon.com/Glenn-Becks-Common-Sense-Control/dp/1439168571/ref=pd_sim_b_1
p205
F1.0
sVhttp://www.amazon.com/Government-Takeover-Disaster-Encounter-Broadsides/dp/1594034605/ref=pd_sim_b_1
p206
F1.0
sVhttp://www.amazon.com/Alls-Fair-Love-Running-President/dp/0684801337/ref=pd_sim_b_3
p207
F1.0
sVhttp://www.amazon.com/Never-Call-Retreat-Victory-Gettysburg/dp/0312949316/ref=pd_sim_b_1
p208
F1.0
sVhttp://www.amazon.com/Remarkable-Mother-Jimmy-Carter/dp/1416562451/ref=pd_sim_b_2
p209
F1.0
sVhttp://www.amazon.com/Bill-Rights-Writings-Formed-Foundation/dp/155709151X/ref=pd_sim_ac_5
p210
I0
sVhttp://www.amazon.com/Lies-Tell-Ourselves-Temptation-Compromise/dp/0830742751/ref=pd_sim_b_1
p211
F1.0
sVhttp://www.amazon.com/1000-Years-Revenge-International-FBI/dp/0060597259/ref=pd_sim_b_1
p212
F1.0
sVhttp://www.amazon.com/Litigation-Explosion-Plume-Walter-Olson/dp/0452268249/ref=pd_sim_b_3
p213
I0
sVhttp://www.amazon.com/Best-Brightest-David-Halberstam/dp/0449908704/ref=pd_sim_b_4
p214
I0
sVhttp://www.amazon.com/Fall-House-Bush-Believers-Executive/dp/074328075X/ref=pd_sim_b_6
p215
F1.0
sVhttp://www.amazon.com/Hillary-Clintons-Race-White-House/dp/1588266958/ref=pd_sim_b_4
p216
F1.0
sVhttp://www.amazon.com/Alien-Agenda-Investigating-Extraterrestrial-Presence/dp/0060955368/ref=pd_sim_b_2
p217
F1.0
sVhttp://www.amazon.com/Adventures-Human-Spirit-Package-Humanities/dp/0136009123/ref=pd_sim_b_4
p218
F1.0
sVhttp://www.amazon.com/Plan-Promise-America-Economy-Healthcare/dp/0982375646/ref=pd_sim_b_4
p219
F1.0
sVhttp://www.amazon.com/Objectivism-Philosophy-Ayn-Rand-Library/dp/0452011019/ref=pd_sim_b_6
p220
F1.0
sVhttp://www.amazon.com/Origin-Species-150th-Anniversary/dp/0451529065/ref=pd_sim_b_5
p221
F1.0
sVhttp://www.amazon.com/Dogs-Women-Love-Them-Extraordinary/dp/1577316924/ref=pd_sim_b_3
p222
F1.0
sVhttp://www.amazon.com/Lies-Government-Told-You-Deception/dp/1595552669/ref=pd_sim_b_4
p223
F1.0
sVhttp://www.amazon.com/Character-Makes-Difference-Where-Believe/dp/080544677X/ref=pd_sim_b_3
p224
F1.0
sVhttp://www.amazon.com/Finding-Hope-Last-Words-Jesus/dp/0801071909/ref=pd_sim_b_1
p225
F1.0
sVhttp://www.amazon.com/Million-Dollar-Putt-Dan-Gutman/dp/B003STCMZQ/ref=pd_sim_b_2
p226
F1.0
sVhttp://www.amazon.com/Izzy-Lenore-Dogs-Unexpected-Journey/dp/0812977742/ref=pd_sim_b_1
p227
F1.0
sVhttp://www.amazon.com/Reagan-Diaries-Ronald/dp/0061558338/ref=pd_sim_b_2
p228
F1.0
sVhttp://www.amazon.com/Atlas-Shrugged-Ayn-Rand/dp/0452011876/ref=pd_sim_b_1
p229
F0.82417582417582413
sVhttp://www.amazon.com/Fight-Jerusalem-Radical-Islam-Future/dp/159698029X/ref=pd_sim_b_1
p230
I0
sVhttp://www.amazon.com/Individualism-Economic-Order-F-Hayek/dp/0226320936/ref=pd_sim_b_4
p231
F1.0
sVhttp://www.amazon.com/Soldiers-Story-Modern-Library-War/dp/0375754210/ref=pd_sim_b_1
p232
F1.0
sVhttp://www.amazon.com/START-Bible-Believers-Greg-Laurie/dp/1418542938/ref=pd_sim_b_3
p233
F1.0
sVhttp://www.amazon.com/Do-Right-Thing-Movement-Bringing/dp/B001U0OGJA/ref=pd_sim_b_2
p234
F1.0
sVhttp://www.amazon.com/Essential-Chomsky-New-Press/dp/1595581898/ref=pd_sim_b_3
p235
F1.0
sVhttp://www.amazon.com/Anti-Obama-Bumper-Sticker-Health/dp/B002ZNZF0K/ref=pd_sim_auto_3
p236
F1.0
sVhttp://www.amazon.com/God-Tyranny-When-Nations-Natural/dp/0982567901/ref=pd_sim_b_2
p237
F0.73333333333333328
sVhttp://www.amazon.com/Incendiary-Novel-Book-Club-Readers/dp/1451618492/ref=pd_sim_b_4
p238
F1.0
sVhttp://www.amazon.com/God-Tyranny-When-Nations-Natural/dp/0982567901/ref=pd_sim_b_6
p239
F0.73333333333333328
sVhttp://www.amazon.com/Markets-Dispossession-Economic-Development-Politics/dp/0822335719/ref=pd_sim_b_6
p240
I0
sVhttp://www.amazon.com/Fault-Lines-Fractures-Threaten-Economy/dp/0691146837/ref=pd_sim_b_4
p241
I0
sVhttp://www.amazon.com/Brethren-Inside-Supreme-Court/dp/0743274024/ref=pd_sim_b_2
p242
F1.0
sVhttp://www.amazon.com/Quest-Cosmic-Justice-Thomas-Sowell/dp/0684864630/ref=pd_sim_b_4
p243
F1.0
sVhttp://www.amazon.com/Crash-Proof-Economic-Collapse-Sonberg/dp/0470043601/ref=pd_sim_b_5
p244
F1.0
sVhttp://www.amazon.com/Final-Days-Barbara-Olson/dp/0895261251/ref=pd_sim_b_6
p245
I0
sVhttp://www.amazon.com/Strategy-Segregated-Education-1925-1950-Epilogue/dp/0807855952/ref=pd_sim_b_2
p246
F1.0
sVhttp://www.amazon.com/Prince-Marshes-Other-Occupational-Hazards/dp/0156032791/ref=pd_sim_b_2
p247
F1.0
sVhttp://www.amazon.com/Last-Jihad-Political-Thrillers/dp/1414312725/ref=pd_sim_b_2
p248
F1.0
sVhttp://www.amazon.com/First-As-Tragedy-Then-Farce/dp/1844674282/ref=pd_sim_b_4
p249
F1.0
sVhttp://www.amazon.com/Money-Mischief-Episodes-Monetary-History/dp/B002YD8GFW/ref=pd_sim_b_6
p250
F1.0
sVhttp://www.amazon.com/PinkCatShop-Bullsh-t-Button/dp/B000L70MQO/ref=pd_sim_k_4
p251
I0
sVhttp://www.amazon.com/What-Government-Money-Percent-Dollar/dp/0945466447/ref=pd_sim_b_6
p252
F1.0
sVhttp://www.amazon.com/Accoutrements-Squishy-Stress-Freud-Toy/dp/B00285JFCO/ref=pd_sim_t_4
p253
F1.0
sVhttp://www.amazon.com/Sun-Tzu-Managers-Strategic-Business/dp/1605500305/ref=pd_sim_b_6
p254
F0.83333333333333337
sVhttp://www.amazon.com/365-Ways-Drive-Liberal-Crazy/dp/1596986425/ref=pd_sim_b_6
p255
I0
sVhttp://www.amazon.com/Prince-Dover-Thrift-Editions/dp/0486272745/ref=pd_sim_b_3
p256
F1.0
sVhttp://www.amazon.com/Pickle-Flavored-Scented-Novelty-Present/dp/B003BW67TW/ref=pd_sim_t_1
p257
F1.0
sVhttp://www.amazon.com/Fusion-Turning-First-Time-Fully-Engaged-Members/dp/0830745319/ref=pd_sim_b_1
p258
F1.0
sVhttp://www.amazon.com/Economics-Money-Banking-Financial-Markets/dp/0321599799/ref=pd_sim_b_5
p259
I0
sVhttp://www.amazon.com/Number-Stars-Lois-Lowry/dp/0440227534/ref=pd_sim_b_2
p260
F1.0
sVhttp://www.amazon.com/Radicalism-American-Revolution-Gordon-Wood/dp/0679736883/ref=pd_sim_b_5
p261
F1.0
sVhttp://www.amazon.com/Abortion-Supreme-Court-Decisions-1965-2007/dp/0872209032/ref=pd_sim_b_1
p262
I0
sVhttp://www.amazon.com/Microsoft-Office-2007-Introductory-Techniques/dp/1423912284/ref=pd_sim_b_6
p263
F1.0
sVhttp://www.amazon.com/Obamas-Wars-Bob-Woodward/dp/B004MKLRRO/ref=pd_sim_b_6
p264
F1.0
sVhttp://www.amazon.com/Samuel-Blink-Forbidden-Forest-Matt/dp/B003STCNIW/ref=pd_sim_b_1
p265
I0
sVhttp://www.amazon.com/Big-Girls-Dont-Cry-Everything/dp/B004KAB302/ref=pd_sim_b_3
p266
F1.0
sVhttp://www.amazon.com/Essays-Political-Economy-Frederic-Bastiat/dp/1406958506/ref=pd_sim_b_3
p267
I0
sVhttp://www.amazon.com/Rush-Limbaugh-Big-Fat-Idiot/dp/0440508649/ref=pd_sim_b_1
p268
F1.0
sVhttp://www.amazon.com/Legend-Christmas-Stocking-Rick-Osborne/dp/0310708982/ref=pd_sim_b_1
p269
I0
sVhttp://www.amazon.com/Projection-Keith-Ablow/dp/0312975740/ref=pd_sim_b_2
p270
F1.0
sVhttp://www.amazon.com/Nazi-International-Postwar-Control-Conflict/dp/1931882932/ref=pd_sim_b_6
p271
F1.0
sVhttp://www.amazon.com/Corruption-Capitalism-strategy-rebalance-sustainable/dp/9889894246/ref=pd_sim_b_1
p272
I0
sVhttp://www.amazon.com/Things-They-Dont-About-Capitalism/dp/1608191664/ref=pd_sim_b_1
p273
F1.0
sVhttp://www.amazon.com/Dark-Bargain-Slavery-Struggle-Constitution/dp/0802714609/ref=pd_sim_b_1
p274
I0
sVhttp://www.amazon.com/One-Minute-After-You-Die/dp/0802463096/ref=pd_sim_b_2
p275
F1.0
sVhttp://www.amazon.com/Silent-Cals-Almanack-Homespun-Vermonts/dp/1438245408/ref=pd_sim_b_1
p276
F1.0
sVhttp://www.amazon.com/Fiasco-American-Military-Adventure-Iraq/dp/B001E96KKK/ref=pd_sim_b_1
p277
F1.0
sVhttp://www.amazon.com/Art-War-Sun-Tzu-Special/dp/1934255122/ref=pd_sim_b_4
p278
F1.0
sVhttp://www.amazon.com/Harold-Imports-Reeds-Rocket-Nutcracker/dp/B000BI2SFG/ref=pd_sim_k_1
p279
I0
sVhttp://www.amazon.com/Keeping-Faith-President-Jimmy-Carter/dp/1557283303/ref=pd_sim_b_2
p280
F1.0
sVhttp://www.amazon.com/Intellectuals-Society-Thomas-Sowell/dp/B004H8GL40/ref=pd_sim_b_6
p281
F1.0
sVhttp://www.amazon.com/Evolving-Presidency-Landmark-Documents-1787-2008/dp/0872896080/ref=pd_sim_b_1
p282
F1.0
sVhttp://www.amazon.com/Understanding-Media-Extensions-Man-Critical/dp/1584230738/ref=pd_sim_b_2
p283
F1.0
sVhttp://www.amazon.com/Migrations-Cultures-World-Thomas-Sowell/dp/0465045898/ref=pd_sim_b_2
p284
F1.0
sVhttp://www.amazon.com/Utopia-Dover-Thrift-Editions-Thomas/dp/0486295834/ref=pd_sim_b_1
p285
F1.0
sVhttp://www.amazon.com/God-Doesnt-Believe-Atheists-Atheist/dp/0882709224/ref=pd_sim_b_3
p286
F1.0
sVhttp://www.amazon.com/Chosen-Forever-Susan-Richards/dp/B002SB8MRM/ref=pd_sim_b_1
p287
F1.0
sVhttp://www.amazon.com/Media-Control-Second-Spectacular-Achievements/dp/1583225366/ref=pd_sim_b_4
p288
F1.0
sVhttp://www.amazon.com/Body-Mind-Bodily-Meaning-Imagination/dp/0226403181/ref=pd_sim_b_2
p289
F1.0
sVhttp://www.amazon.com/Discover-Your-Strengths-Marcus-Buckingham/dp/0743201140/ref=pd_sim_b_1
p290
I0
sVhttp://www.amazon.com/Beyond-Chutzpah-Anti-Semitism-History-Updated/dp/0520249895/ref=pd_sim_b_1
p291
F1.0
sVhttp://www.amazon.com/Teachings-Worldly-Philosophy-Robert-Heilbroner/dp/0393316076/ref=pd_sim_b_2
p292
F1.0
sVhttp://www.amazon.com/Cold-Blood-Truman-Capote/dp/0679745580/ref=pd_sim_b_1
p293
F1.0
sVhttp://www.amazon.com/Constitution-Reference-Amendments-Declaration-Independence/dp/0981559697/ref=pd_sim_b_6
p294
I0
sVhttp://www.amazon.com/Gamble-Petraeus-American-Adventure-2006-2008/dp/B004E3XD9E/ref=pd_sim_b_2
p295
F1.0
sVhttp://www.amazon.com/Evidence-Bible-Ray-Comfort/dp/0882709062/ref=pd_sim_b_4
p296
F1.0
sVhttp://www.amazon.com/Gumballs-Pieces-Novelty-Product-Breakfast/dp/B001MP30DG/ref=pd_sim_t_3
p297
F1.0
sVhttp://www.amazon.com/Other-Secret-Metaphor-Shapes-World/dp/0061710288/ref=pd_sim_b_6
p298
I0
sVhttp://www.amazon.com/Climbing-Worlds-Highest-Mountain-Step-Into-Reading/dp/0679838856/ref=pd_sim_b_1
p299
F1.0
sVhttp://www.amazon.com/Centuries-American-Education-David-Barton/dp/1932225323/ref=pd_sim_b_6
p300
F1.0
sVhttp://www.amazon.com/Discourse-Free-Will-Continuum-Impacts/dp/0826477941/ref=pd_sim_b_6
p301
F1.0
sVhttp://www.amazon.com/Capital-Critique-Political-Economy-Classics/dp/0140445706/ref=pd_sim_b_1
p302
F1.0
sVhttp://www.amazon.com/Health-Care-Reform-American-Politics/dp/0199769125/ref=pd_sim_b_1
p303
I0
sVhttp://www.amazon.com/Eyewitness-Power-Essence-Leadership-Clinton/dp/0743203224/ref=pd_sim_b_4
p304
I0
sVhttp://www.amazon.com/Poppy-Ereth-Stories-Avi/dp/B002VPE7LA/ref=pd_sim_b_4
p305
F1.0
sVhttp://www.amazon.com/Four-Paws-Heaven-Devotions-Lovers/dp/0736916407/ref=pd_sim_b_5
p306
I0
sVhttp://www.amazon.com/Owen-Mzee-Friendship-Isabella-Hatkoff/dp/B001Q3M68E/ref=pd_sim_b_3
p307
F1.0
sVhttp://www.amazon.com/Dog-Year-Twelve-Months-Four/dp/0812966902/ref=pd_sim_b_2
p308
F1.0
sVhttp://www.amazon.com/Great-Global-Warming-Blunder-Scientists/dp/1594033730/ref=pd_sim_b_2
p309
I0
sVhttp://www.amazon.com/Terror-Conspiracy-Deception-Loss-Liberty/dp/1932857435/ref=pd_sim_b_4
p310
F1.0
sVhttp://www.amazon.com/Dog-Days-Dispatches-Bedlam-Farm/dp/0812974352/ref=pd_sim_b_5
p311
F1.0
sVhttp://www.amazon.com/Ignite-Spark-Immediate-Growth-Church/dp/0801072166/ref=pd_sim_b_2
p312
F1.0
sVhttp://www.amazon.com/Student-Practice-Counseling-Psychotherapy-Workbook/dp/0495102091/ref=pd_sim_b_3
p313
I0
sVhttp://www.amazon.com/Buckleys-Story-Ingrid-King/dp/1440166242/ref=pd_sim_b_1
p314
F1.0
sVhttp://www.amazon.com/Truth-jokes-Al-Franken/dp/B000SOVWBE/ref=pd_sim_b_2
p315
F1.0
sVhttp://www.amazon.com/Foundations-International-Macroeconomics-Maurice-Obstfeld/dp/0262150476/ref=pd_sim_b_4
p316
I0
sVhttp://www.amazon.com/Crusader-Ronald-Reagan-Fall-Communism/dp/0061189243/ref=pd_sim_b_3
p317
F1.0
sVhttp://www.amazon.com/Grand-Strategy-Byzantine-Empire/dp/0674035194/ref=pd_sim_b_1
p318
I0
sVhttp://www.amazon.com/Hitlers-Cross-Erwin-W-Lutzer/dp/0802435831/ref=pd_sim_b_1
p319
F1.0
sVhttp://www.amazon.com/Love-Letter-Novel-Cathleen-Schine/dp/0312426984/ref=pd_sim_b_2
p320
F1.0
sVhttp://www.amazon.com/HONK-If-Paying-Your-Mortgage/dp/B001UFQ47C/ref=pd_sim_misc_3
p321
F1.0
sVhttp://www.amazon.com/Americas-March-Socialism-missile-parades/dp/0743598547/ref=pd_sim_b_5
p322
F1.0
sVhttp://www.amazon.com/SuperFreakonomics-Cooling-Patriotic-Prostitutes-Insurance/dp/0060889578/ref=pd_sim_b_1
p323
F1.0
sVhttp://www.amazon.com/Benjamin-Franklin-Wisdom-Americana-Editions/dp/0880880813/ref=pd_sim_b_2
p324
I0
sVhttp://www.amazon.com/Companion-Marxs-Capital-David-Harvey/dp/1844673596/ref=pd_sim_b_3
p325
F1.0
sVhttp://www.amazon.com/Companion-Marxs-Capital-David-Harvey/dp/1844673596/ref=pd_sim_b_1
p326
F1.0
sVhttp://www.amazon.com/Real-Change-Fight-Americas-Future/dp/1596985895/ref=pd_sim_b_1
p327
F1.0
sVhttp://www.amazon.com/American-Conspiracies-Dirty-Government-Tells/dp/160239802X/ref=pd_sim_b_1
p328
F1.0
sVhttp://www.amazon.com/Microeconomics-5th-Jeffrey-M-Perloff/dp/0321558499/ref=pd_sim_b_6
p329
I0
sVhttp://www.amazon.com/Got-Salami-Hank-Zipzer/dp/0448431637/ref=pd_sim_b_1
p330
F1.0
sVhttp://www.amazon.com/Marx-Engels-Reader-Second-Karl-Marx/dp/039309040X/ref=pd_sim_b_1
p331
F1.0
sVhttp://www.amazon.com/Warburgs-Twentieth-Century-Odyssey-Remarkable-Jewish/dp/0679743596/ref=pd_sim_b_2
p332
F1.0
sVhttp://www.amazon.com/Infiltration-Muslim-Subversives-Penetrated-Washington/dp/1595552480/ref=pd_sim_b_1
p333
F1.0
sVhttp://www.amazon.com/Homework-Machine-Dan-Gutman/dp/0689876793/ref=pd_sim_b_4
p334
F1.0
sVhttp://www.amazon.com/Conversations-Myself-Nelson-Mandela/dp/0374128952/ref=pd_sim_b_6
p335
F0.7142857142857143
sVhttp://www.amazon.com/Essential-Adam-Smith/dp/0393955303/ref=pd_sim_b_3
p336
F0.5
sVhttp://www.amazon.com/Crash-2008-What-Means-Financial/dp/B002UXRZ6C/ref=pd_sim_b_1
p337
F1.0
sVhttp://www.amazon.com/Between-Sisters-Novel-Kristin-Hannah/dp/0345519469/ref=pd_sim_b_1
p338
F1.0
sVhttp://www.amazon.com/Seventeen-Second-Miracle-Jason-Wright/dp/B004J8HWXM/ref=pd_sim_b_3
p339
F1.0
sVhttp://www.amazon.com/Manchurian-President-Communists-Socialists-Anti-American/dp/1935071874/ref=pd_sim_b_5
p340
F1.0
sVhttp://www.amazon.com/BACON-shaped-themed-band-aids-Bandages/dp/B000SSV8AA/ref=pd_sim_t_1
p341
F1.0
sVhttp://www.amazon.com/Nubs-True-Story-Marine-Miracle/dp/031605318X/ref=pd_sim_b_2
p342
F1.0
sVhttp://www.amazon.com/Nubs-True-Story-Marine-Miracle/dp/031605318X/ref=pd_sim_b_3
p343
F1.0
sVhttp://www.amazon.com/Angel-Island-Immigrant-Gateway-America/dp/0199734089/ref=pd_sim_b_5
p344
I0
sVhttp://www.amazon.com/Conflict-Visions-Ideological-Political-Struggles/dp/0465002056/ref=pd_sim_b_1
p345
F1.0
sVhttp://www.amazon.com/Blink-Power-Thinking-Without/dp/0316010669/ref=pd_sim_b_4
p346
F1.0
sVhttp://www.amazon.com/Oxymoronica-Paradoxical-Historys-Greatest-Wordsmiths/dp/0060536993/ref=pd_sim_b_4
p347
F1.0
sVhttp://www.amazon.com/Ifferisms-Anthology-Aphorisms-That-Begin/dp/0061672300/ref=pd_sim_b_6
p348
F1.0
sVhttp://www.amazon.com/Bacon-Flavored-Balm-Novelty-Cured/dp/B002SIFQUQ/ref=pd_sim_t_1
p349
F1.0
sVhttp://www.amazon.com/God-Americas-Side-Surprising-Affects/dp/0802489524/ref=pd_sim_b_2
p350
F1.0
sVhttp://www.amazon.com/Pegasus-Bridge-June-6-1944/dp/0671671561/ref=pd_sim_b_1
p351
F1.0
sVhttp://www.amazon.com/Philosophy-Needs-Rand-Library-Vol/dp/0451138937/ref=pd_sim_b_4
p352
F0.82417582417582413
sVhttp://www.amazon.com/Who-Are-Judge-Erwin-Lutzer/dp/0802409067/ref=pd_sim_b_6
p353
F1.0
sVhttp://www.amazon.com/Grange-House-Novel-Sarah-Blake/dp/0312280041/ref=pd_sim_b_4
p354
I0
sVhttp://www.amazon.com/Heaven-Randy-Alcorn/dp/0842379428/ref=pd_sim_b_1
p355
F1.0
sVhttp://www.amazon.com/PLANNING-FREEDOM-MARKET-SYSTEM-Ludwig/dp/0865976619/ref=pd_sim_b_4
p356
F1.0
sVhttp://www.amazon.com/Womens-Voices-Feminist-Visions-Contemporary/dp/0073512281/ref=pd_sim_b_2
p357
F1.0
sVhttp://www.amazon.com/Divine-Revelation-Heaven-BAXTER-MARY/dp/0883685248/ref=pd_sim_b_1
p358
I0
sVhttp://www.amazon.com/Bats-at-Ballgame-Brian-Lies/dp/0547249705/ref=pd_sim_b_2
p359
F1.0
sVhttp://www.amazon.com/Corporatism-Secret-Government-World-Order/dp/0930852710/ref=pd_sim_b_6
p360
F1.0
sVhttp://www.amazon.com/Manufacturing-Consent-Political-Economy-Media/dp/0375714499/ref=pd_sim_b_1
p361
F1.0
sVhttp://www.amazon.com/Dreams-My-Father-Story-Inheritance/dp/1400082773/ref=pd_sim_b_1
p362
F1.0
sVhttp://www.amazon.com/Lunch-Money-Andrew-Clements/dp/0689866852/ref=pd_sim_b_1
p363
F0.33333333333333331
sVhttp://www.amazon.com/Ruling-Class-Corrupted-America-About/dp/0825305586/ref=pd_sim_b_6
p364
F1.0
sVhttp://www.amazon.com/Alexander-Hamilton-Ron-Chernow/dp/0143034758/ref=pd_sim_b_1
p365
F1.0
sVhttp://www.amazon.com/Romantic-Manifesto-Ayn-Rand/dp/0451149165/ref=pd_sim_b_5
p366
F1.0
sVhttp://www.amazon.com/Bats-at-Beach-Brian-Lies/dp/061855744X/ref=pd_sim_b_1
p367
F1.0
sVhttp://www.amazon.com/Scientific-Facts-Bible-Reasons-Supernatural/dp/0882708791/ref=pd_sim_b_1
p368
F1.0
sVhttp://www.amazon.com/New-Prince-Machiavelli-Updated-Twenty-First/dp/1580631479/ref=pd_sim_b_3
p369
F1.0
sVhttp://www.amazon.com/Telementation-Cosmic-Feeling-Law-Attraction/dp/1615775285/ref=pd_sim_b_1
p370
F1.0
sVhttp://www.amazon.com/Freckle-Juice-Judy-Blume/dp/0440428130/ref=pd_sim_b_1
p371
I0
sVhttp://www.amazon.com/Accoutrements-Bacon-Flavored-Jelly-Beans/dp/B001DDA3VE/ref=pd_sim_t_3
p372
F1.0
sVhttp://www.amazon.com/Forced-Founders-Revolution-Omohundro-Institute/dp/0807847844/ref=pd_sim_b_4
p373
I0
sVhttp://www.amazon.com/90-Minutes-Heaven-Story-Death/dp/0800759494/ref=pd_sim_b_6
p374
F1.0
sVhttp://www.amazon.com/Trickle-Up-Poverty-Stopping-Security/dp/0062010972/ref=pd_sim_auto_1
p375
F1.0
sVhttp://www.amazon.com/Marshalls-Tendencies-Economists-Eyskens-Lectures/dp/0262692791/ref=pd_sim_b_2
p376
I0
sVhttp://www.amazon.com/American-Patriots-Almanac-Readings-America/dp/159555260X/ref=pd_sim_b_1
p377
F1.0
sVhttp://www.amazon.com/Documents-Government-Doesnt-Want-Read/dp/1616082267/ref=pd_sim_b_3
p378
F1.0
sVhttp://www.amazon.com/Documents-Government-Doesnt-Want-Read/dp/1616082267/ref=pd_sim_b_2
p379
F1.0
sVhttp://www.amazon.com/Last-Days-Europe-Epitaph-Continent/dp/031254183X/ref=pd_sim_b_4
p380
I0
sVhttp://www.amazon.com/Ayn-Rand-Beginners-Steerforth-Press/dp/1934389374/ref=pd_sim_b_4
p381
F1.0
sVhttp://www.amazon.com/Death-Common-Sense-Suffocating-America/dp/0446672289/ref=pd_sim_b_1
p382
F1.0
sVhttp://www.amazon.com/Owen-Mzee-Friendship-Isabella-Hatkoff/dp/B001Q3M68E/ref=pd_sim_b_6
p383
F1.0
sVhttp://www.amazon.com/Gutenberg-Galaxy-Making-Typographic-Man/dp/0802060412/ref=pd_sim_b_1
p384
F1.0
sVhttp://www.amazon.com/Praise-Folly-Dover-Thrift-Editions/dp/0486426890/ref=pd_sim_b_6
p385
F1.0
sVhttp://www.amazon.com/My-Life-Early-Bill-Clinton/dp/1400096715/ref=pd_sim_b_2
p386
F1.0
sVhttp://www.amazon.com/Real-George-Washington-American-Classic/dp/0880800143/ref=pd_sim_b_2
p387
F1.0
sVhttp://www.amazon.com/State-Denial-Bush-War-Part/dp/0743272242/ref=pd_sim_b_2
p388
F1.0
sVhttp://www.amazon.com/Stocks-Long-Run-4th-Definitive/dp/0071494707/ref=pd_sim_b_1
p389
F1.0
sVhttp://www.amazon.com/Case-Against-Barack-Obama-Unexamined/dp/1596985666/ref=pd_sim_b_2
p390
F1.0
sVhttp://www.amazon.com/Chia-Handmade-Decorative-Planter-Determined/dp/B001PKU28E/ref=pd_sim_t_4
p391
I0
sVhttp://www.amazon.com/Death-Liberal-Class-Chris-Hedges/dp/1568586442/ref=pd_sim_b_1
p392
F1.0
sVhttp://www.amazon.com/Signs-Rapture-Antichrist-Armagedon-Heaven/dp/0984332758/ref=pd_sim_b_1
p393
F1.0
sVhttp://www.amazon.com/Best-Friends-Owen-Isabella-Hatkoff/dp/0439928729/ref=pd_sim_b_1
p394
F1.0
sVhttp://www.amazon.com/Europes-Promise-European-Best-Insecure/dp/0520261372/ref=pd_sim_b_1
p395
F1.0
sVhttp://www.amazon.com/Administration-Politicized-Justice-Encounter-Broadsides/dp/1594034745/ref=pd_sim_b_4
p396
F1.0
sVhttp://www.amazon.com/Fountainhead-Ayn-Rand/dp/0451191153/ref=pd_sim_b_1
p397
F0.82417582417582413
sVhttp://www.amazon.com/Bourgeois-Virtues-Ethics-Age-Commerce/dp/0226556638/ref=pd_sim_b_6
p398
F1.0
sVhttp://www.amazon.com/Republican-Julian-Rothbaum-Distinguished-Lecture/dp/0806128879/ref=pd_sim_b_6
p399
F1.0
sVhttp://www.amazon.com/Holy-Enchilada-Hank-Zipzer-6/dp/0448433532/ref=pd_sim_b_5
p400
F1.0
sVhttp://www.amazon.com/1776-David-McCullough/dp/0743226720/ref=pd_sim_b_1
p401
F1.0
sVhttp://www.amazon.com/Obama-Bumper-Sticker-Change-Sarah/dp/B001M03YB4/ref=pd_sim_misc_3
p402
F1.0
sVhttp://www.amazon.com/Made-Crave-Participants-Guide-Satisfying/dp/0310671558/ref=pd_sim_b_1
p403
I0
sVhttp://www.amazon.com/Law-Legislation-Liberty-Rules-Order/dp/0226320863/ref=pd_sim_b_5
p404
F1.0
sVhttp://www.amazon.com/Reveille-Radicals-Saul-Alinsky/dp/0679721126/ref=pd_sim_b_3
p405
I0
sVhttp://www.amazon.com/Matter-Principle-Ronald-Dworkin/dp/0674554612/ref=pd_sim_b_4
p406
F1.0
sVhttp://www.amazon.com/Framework-Human-Resource-Management-6th/dp/0132556375/ref=pd_sim_b_5
p407
I0
sVhttp://www.amazon.com/Dogs-Life-Autobiography-Stray/dp/0439717000/ref=pd_sim_b_2
p408
F1.0
sVhttp://www.amazon.com/Setting-Record-Straight-American-History/dp/1932225277/ref=pd_sim_b_3
p409
F1.0
sVhttp://www.amazon.com/Angel-Dogs-Divine-Messengers-Love/dp/157731493X/ref=pd_sim_b_4
p410
F1.0
sVhttp://www.amazon.com/Ever-Wonder-Other-Controversial-Essays/dp/0817947523/ref=pd_sim_b_6
p411
F1.0
sVhttp://www.amazon.com/Londonistan-Melanie-Phillips/dp/1594031975/ref=pd_sim_b_4
p412
I0
sVhttp://www.amazon.com/Heaven-Biblical-Answers-Questions-booklet/dp/141430191X/ref=pd_sim_b_2
p413
F1.0
sVhttp://www.amazon.com/Christmas-Sweater-Glenn-Beck/dp/1416595007/ref=pd_sim_b_3
p414
F1.0
sVhttp://www.amazon.com/Metaphors-We-Live-George-Lakoff/dp/0226468011/ref=pd_sim_b_6
p415
F0.84848484848484851
sVhttp://www.amazon.com/Human-Action-Scholars-Ludwig-Mises/dp/1933550317/ref=pd_sim_b_4
p416
F1.0
sVhttp://www.amazon.com/Education-Critical-Consciousness-Continuum-Impacts/dp/082647795X/ref=pd_sim_b_2
p417
F1.0
sVhttp://www.amazon.com/How-Talk-Liberal-You-Must/dp/1400054184/ref=pd_sim_b_5
p418
F1.0
sVhttp://www.amazon.com/Believers-Effective-Christian-Living-Guides/dp/084235574X/ref=pd_sim_b_1
p419
F1.0
sVhttp://www.amazon.com/Forgotten-God-DVD-Study-Resource/dp/0781403227/ref=pd_sim_b_1
p420
F1.0
sVhttp://www.amazon.com/Road-Serfdom-Documents-Definitive-Collected/dp/0226320553/ref=pd_sim_b_5
p421
F1.0
sVhttp://www.amazon.com/Enemy-Within-America-Churches-Military/dp/1595550135/ref=pd_sim_b_1
p422
F1.0
sVhttp://www.amazon.com/Darker-Nations-Peoples-History-Third/dp/1595583424/ref=pd_sim_b_4
p423
F1.0
sVhttp://www.amazon.com/Psychopath-Novel-Keith-Ablow/dp/0312996055/ref=pd_sim_b_5
p424
F1.0
sVhttp://www.amazon.com/Obama-IDIOT-Bumper-Sticker-Decal/dp/B001VXGAAO/ref=pd_sim_auto_6
p425
F1.0
sVhttp://www.amazon.com/Citizens-Introduction-Declaration-Independence-Constitution/dp/0891951377/ref=pd_sim_b_4
p426
F1.0
sVhttp://www.amazon.com/Owen-Mzee-Together-Craig-Hatkoff/dp/0545037662/ref=pd_sim_b_5
p427
F0.93333333333333335
sVhttp://www.amazon.com/Christmas-Jars-Jason-F-Wright/dp/1590384814/ref=pd_sim_b_1
p428
F1.0
sVhttp://www.amazon.com/Lights-Out-Islam-Speech-Twilight/dp/0973157054/ref=pd_sim_b_3
p429
F1.0
sVhttp://www.amazon.com/Grundrisse-Foundations-Critique-Political-Classics/dp/0140445757/ref=pd_sim_b_4
p430
F1.0
sVhttp://www.amazon.com/Father-Us-All-History-Ancient/dp/1608191656/ref=pd_sim_b_3
p431
F1.0
sVhttp://www.amazon.com/Help-Somebody-Fourth-Grade-Zipzer/dp/0448436191/ref=pd_sim_b_6
p432
F1.0
sVhttp://www.amazon.com/Survey-Sustainable-Development-Economic-Dimensions/dp/155963863X/ref=pd_sim_b_4
p433
F1.0
sVhttp://www.amazon.com/Running-Alone-Presidential-Leadership-Bush/dp/046500833X/ref=pd_sim_b_6
p434
I0
sVhttp://www.amazon.com/REALITY-OPTIONAL-HOOVER-PRESS-PUBLICATION/dp/0817992626/ref=pd_sim_b_4
p435
F1.0
sVhttp://www.amazon.com/Coolie-Speaks-Indentured-Laborers-American/dp/159213582X/ref=pd_sim_b_3
p436
F1.0
sVhttp://www.amazon.com/Extended-Phenotype-Reach-Popular-Science/dp/0192880519/ref=pd_sim_b_2
p437
F1.0
sVhttp://www.amazon.com/Ayn-Rand-Box-Set/dp/0451947673/ref=pd_sim_b_3
p438
F1.0
sVhttp://www.amazon.com/Principles-Macroeconomics-9th-Karl-Case/dp/0136058965/ref=pd_sim_b_2
p439
F1.0
sVhttp://www.amazon.com/Odyssey-Homer/dp/0872204847/ref=pd_sim_b_2
p440
F1.0
sVhttp://www.amazon.com/Niagara-Falls-Does-Hank-Zipzer/dp/0448431629/ref=pd_sim_b_4
p441
F1.0
sVhttp://www.amazon.com/Angel-Cats-Divine-Messengers-Comfort/dp/1577314484/ref=pd_sim_b_1
p442
F1.0
sVhttp://www.amazon.com/Climbing-Mount-Improbable-Richard-Dawkins/dp/0393316823/ref=pd_sim_b_6
p443
F1.0
sVhttp://www.amazon.com/Laws-Empire-Ronald-Dworkin/dp/0674518365/ref=pd_sim_b_1
p444
F1.0
sVhttp://www.amazon.com/Speak-Like-Churchill-Stand-Lincoln/dp/0761563512/ref=pd_sim_b_1
p445
F1.0
sVhttp://www.amazon.com/Herbal-Bible-Family-Guide-Remedies/dp/0912845066/ref=pd_sim_b_3
p446
F1.0
sVhttp://www.amazon.com/Conquer-Share-Faith-Leaders-Guide/dp/0830751521/ref=pd_sim_b_4
p447
F1.0
sVhttp://www.amazon.com/Born-Blood-Fire-Concise-History/dp/0393927695/ref=pd_sim_b_1
p448
I0
sVhttp://www.amazon.com/Cook-Doodle-Doo-Janet-Stevens/dp/0152056580/ref=pd_sim_b_3
p449
F1.0
sVhttp://www.amazon.com/Bourgeois-Dignity-Economics-Explain-Modern/dp/0226556654/ref=pd_sim_b_1
p450
F1.0
sVhttp://www.amazon.com/Questions-About-American-History-Supposed/dp/0307346692/ref=pd_sim_b_2
p451
F1.0
sVhttp://www.amazon.com/Breakfast-Jesus-Greg-Laurie/dp/0842353283/ref=pd_sim_b_1
p452
F1.0
sVhttp://www.amazon.com/Foreign-Policy-Freedom-Commerce-Friendship/dp/0912453001/ref=pd_sim_b_2
p453
F1.0
sVhttp://www.amazon.com/Gaza-Crisis-Reflections-Israels-Palestinians/dp/1608460975/ref=pd_sim_b_1
p454
F0.83636363636363631
sVhttp://www.amazon.com/Change-Continuity-2008-Elections/dp/1604265205/ref=pd_sim_b_1
p455
I0
sVhttp://www.amazon.com/Gaza-Crisis-Reflections-Israels-Palestinians/dp/1608460975/ref=pd_sim_b_6
p456
F0.83636363636363631
sVhttp://www.amazon.com/Girl-Who-Kicked-Hornets-Nest/dp/030726999X/ref=pd_sim_b_1
p457
F1.0
sVhttp://www.amazon.com/How-Talk-Liberal-You-Must/dp/1400054192/ref=pd_sim_b_5
p458
F1.0
sVhttp://www.amazon.com/Ratification-People-Debate-Constitution-1787-1788/dp/0684868547/ref=pd_sim_b_1
p459
F1.0
sVhttp://www.amazon.com/Freedom-Culture-Great-Books-Philosophy/dp/0879755601/ref=pd_sim_b_1
p460
F1.0
sVhttp://www.amazon.com/Capitalism-Freedom-Anniversary-Milton-Friedman/dp/0226264211/ref=pd_sim_b_1
p461
F1.0
sVhttp://www.amazon.com/Conquests-Cultures-International-Thomas-Sowell/dp/0465014003/ref=pd_sim_b_1
p462
F1.0
sVhttp://www.amazon.com/Religion-Peace-Christianity-Islam-Isnt/dp/1596985151/ref=pd_sim_b_6
p463
F1.0
sVhttp://www.amazon.com/Commanders-Bob-Woodward/dp/0743234758/ref=pd_sim_b_4
p464
F1.0
sVhttp://www.amazon.com/Way-Master-Ray-Comfort/dp/0882702203/ref=pd_sim_b_2
p465
F1.0
sVhttp://www.amazon.com/Appointed-Biblical-Feasts-Return-Yisrael/dp/1932124179/ref=pd_sim_b_1
p466
F1.0
sVhttp://www.amazon.com/Marketing-Warfare-Anniversary-Authors-Annotated/dp/0071460829/ref=pd_sim_b_4
p467
F1.0
sVhttp://www.amazon.com/Annexing-Mexico-Solving-Annexation-Assimilation/dp/1933769238/ref=pd_sim_b_3
p468
I0
sVhttp://www.amazon.com/Sarah-Palin-2012-Betcha-Button/dp/B001KT1R34/ref=pd_sim_b_4
p469
F1.0
sVhttp://www.amazon.com/Good-Dog-Avi/dp/0689838255/ref=pd_sim_b_6
p470
F1.0
sVhttp://www.amazon.com/Melissa-Doug-4852-Beagle-Plush/dp/B000NV7M8Y/ref=pd_sim_t_2
p471
F1.0
sVhttp://www.amazon.com/Barbara-Bush-Memoir/dp/0743254473/ref=pd_sim_b_2
p472
I0
sVhttp://www.amazon.com/Art-Max-David-Wiesner/dp/0618756639/ref=pd_sim_b_3
p473
F1.0
sVhttp://www.amazon.com/Cracking-Highest-Glass-Ceiling-Comparison/dp/0313382484/ref=pd_sim_b_5
p474
F1.0
sVhttp://www.amazon.com/Million-Dollar-Shot-new-cover/dp/1423100840/ref=pd_sim_b_6
p475
F1.0
sVhttp://www.amazon.com/Its-Probably-Penny-Loreen-Leedy/dp/0805073892/ref=pd_sim_b_2
p476
F1.0
sVhttp://www.amazon.com/Race-Culture-World-Thomas-Sowell/dp/0465067972/ref=pd_sim_b_4
p477
F1.0
sVhttp://www.amazon.com/Cross-Gardener-Jason-F-Wright/dp/0425233286/ref=pd_sim_b_3
p478
F1.0
sVhttp://www.amazon.com/Principles-Macroeconomics-N-Gregory-Mankiw/dp/0324589999/ref=pd_sim_b_5
p479
F1.0
sVhttp://www.amazon.com/Ethnic-Cleansing-Palestine-Ilan-Pappe/dp/1851685553/ref=pd_sim_b_3
p480
F1.0
sVhttp://www.amazon.com/Dismantling-America-other-controversial-essays/dp/B004NSVE4G/ref=pd_sim_b_3
p481
F1.0
sVhttp://www.amazon.com/More-Perfect-Constitution-Proposals-Revitalize/dp/B001P3OMZA/ref=pd_sim_b_1
p482
F1.0
sVhttp://www.amazon.com/Ill-Keep-Guns-Freedom-Money/dp/B00276KNQG/ref=pd_sim_auto_2
p483
F1.0
sVhttp://www.amazon.com/Riding-Lessons-Novel-Sara-Gruen/dp/0061241083/ref=pd_sim_b_6
p484
I0
sVhttp://www.amazon.com/Bankrupt-Intellectual-Bankruptcy-Todays-Democratic/dp/1596980176/ref=pd_sim_b_2
p485
F1.0
sVhttp://www.amazon.com/Kennedy-Detail-Secret-Service-Silence/dp/1439192960/ref=pd_sim_b_1
p486
F1.0
sVhttp://www.amazon.com/Manifesto-Philosophy-Followed-Definition-Intersections/dp/0791442209/ref=pd_sim_b_5
p487
F1.0
sVhttp://www.amazon.com/Politically-Incorrect-Guide-American-History/dp/0895260476/ref=pd_sim_b_4
p488
F1.0
sVhttp://www.amazon.com/Bacon-Scented-Freshener-Novelty-Gift/dp/B000SSVZLW/ref=pd_sim_t_3
p489
F1.0
sVhttp://www.amazon.com/Change-We-Can-Believe-Americas/dp/0307460452/ref=pd_sim_b_3
p490
F1.0
sVhttp://www.amazon.com/Change-We-Can-Believe-Americas/dp/0307460452/ref=pd_sim_b_2
p491
F1.0
sVhttp://www.amazon.com/Buffalo-Before-Breakfast-Magic-House/dp/0679890645/ref=pd_sim_b_2
p492
F1.0
sVhttp://www.amazon.com/Law-Legislation-Liberty-Political-People/dp/0226320901/ref=pd_sim_b_2
p493
F1.0
sVhttp://www.amazon.com/Kennedys-End-Dynasty-Life-Books/dp/B004KAB5EG/ref=pd_sim_b_2
p494
I0
sVhttp://www.amazon.com/End-Fed-Ron-Paul/dp/0446549177/ref=pd_sim_b_6
p495
F1.0
sVhttp://www.amazon.com/Political-Zoo-Michael-Savage/dp/B003O86HHU/ref=pd_sim_b_4
p496
F1.0
sVhttp://www.amazon.com/Political-Writings-John-Locke/dp/0872206769/ref=pd_sim_b_5
p497
F1.0
sVhttp://www.amazon.com/Abraham-Lincolns-Gettysburg-Address-Illustrated/dp/1439188963/ref=pd_sim_b_2
p498
F1.0
sVhttp://www.amazon.com/Crazies-Left-Wimps-Right-Unabridg/dp/B001OMHU24/ref=pd_sim_b_3
p499
F1.0
sVhttp://www.amazon.com/If-God-Good-Faith-Suffering/dp/160142132X/ref=pd_sim_b_5
p500
F1.0
sVhttp://www.amazon.com/Debating-Presidency-Conflicting-Perspectives-Executive/dp/1604265655/ref=pd_sim_b_5
p501
F1.0
sVhttp://www.amazon.com/Cashless-Prophecy-Economic-Future-Financial/dp/0736926445/ref=pd_sim_b_1
p502
F1.0
sVhttp://www.amazon.com/Gung-Turn-People-Any-Organization/dp/068815428X/ref=pd_sim_b_1
p503
F1.0
sVhttp://www.amazon.com/Global-Economic-Crisis-Depression-Century/dp/0973714735/ref=pd_sim_b_4
p504
I0
sVhttp://www.amazon.com/Framework-Marketing-Management-Philip-Kotler/dp/0131452584/ref=pd_sim_b_1
p505
I0
sVhttp://www.amazon.com/Congress-Connection-Professor-David-Mayhew/dp/0300105878/ref=pd_sim_b_2
p506
I0
sVhttp://www.amazon.com/Passion-Western-Mind-Understanding-Shaped/dp/0345368096/ref=pd_sim_b_4
p507
F1.0
sVhttp://www.amazon.com/Leaderless-Jihad-Networks-Twenty-First-Century/dp/0812240650/ref=pd_sim_b_2
p508
I0
sVhttp://www.amazon.com/Spiritual-Disciplines-Christian-Donald-Whitney/dp/1576830276/ref=pd_sim_b_5
p509
I0
sVhttp://www.amazon.com/Makers-Modern-Strategy-Machiavelli-Nuclear/dp/0691027641/ref=pd_sim_b_1
p510
I0
sVhttp://www.amazon.com/Bush-at-War-Bob-Woodward/dp/B000C4SSQW/ref=pd_sim_b_3
p511
F1.0
sVhttp://www.amazon.com/Heritage-Guide-Constitution-Edwin-Meese/dp/159698001X/ref=pd_sim_b_1
p512
F1.0
sVhttp://www.amazon.com/Earth-Medicine-Food-Michael-Weiner/dp/0449905896/ref=pd_sim_b_3
p513
F1.0
sVhttp://www.amazon.com/Cottage-Sea-Ciji-Ware/dp/140222270X/ref=pd_sim_b_4
p514
I0
sVhttp://www.amazon.com/House-Senate-Fourth-Ross-Baker/dp/0393930602/ref=pd_sim_b_4
p515
F1.0
sVhttp://www.amazon.com/Flotsam-David-Wiesner/dp/0618194576/ref=pd_sim_b_1
p516
F1.0
sVhttp://www.amazon.com/Audacity-Hope-Thoughts-Reclaiming-American/dp/0307455874/ref=pd_sim_b_4
p517
F1.0
sVhttp://www.amazon.com/Descent-Man-Penguin-Classics/dp/0140436316/ref=pd_sim_b_1
p518
F1.0
sVhttp://www.amazon.com/Bourgeois-Dignity-Economics-Explain-Modern/dp/0226556654/ref=pd_sim_b_4
p519
F1.0
sVhttp://www.amazon.com/Perils-Prosperity-1914-1932-2nd/dp/0226473716/ref=pd_sim_b_3
p520
F1.0
sVhttp://www.amazon.com/We-Will-Heard-Struggles-Political/dp/0742556085/ref=pd_sim_b_2
p521
F1.0
sVhttp://www.amazon.com/Hitler-Churchill-Leadership-Andrew-Roberts/dp/0753817780/ref=pd_sim_b_2
p522
F1.0
sVhttp://www.amazon.com/Mating-Mind-Sexual-Choice-Evolution/dp/038549517X/ref=pd_sim_b_2
p523
I0
sVhttp://www.amazon.com/Places-Between-Rory-Stewart/dp/B002IT5OS4/ref=pd_sim_b_1
p524
F1.0
sVhttp://www.amazon.com/American-Scripture-Making-Declaration-Independence/dp/0679779086/ref=pd_sim_b_6
p525
F1.0
sVhttp://www.amazon.com/LIBERTY-MEANS-HOOVER-PRESS-PUBLICATION/dp/0817996125/ref=pd_sim_b_3
p526
F1.0
sVhttp://www.amazon.com/New-World-Order-Facts-Fiction/dp/0967346673/ref=pd_sim_b_1
p527
F1.0
sVhttp://www.amazon.com/Founders-Almanac-Practical-Greatest-Eloquent/dp/0891951040/ref=pd_sim_b_5
p528
F1.0
sVhttp://www.amazon.com/Good-Dog-Story-Orson-Changed/dp/0812971493/ref=pd_sim_b_2
p529
F1.0
sVhttp://www.amazon.com/Invisible-Heart-Economic-Romance/dp/0262681358/ref=pd_sim_b_2
p530
F1.0
sVhttp://www.amazon.com/Americas-Democratic-Republic-Edward-Greenberg/dp/0205806740/ref=pd_sim_b_1
p531
F1.0
sVhttp://www.amazon.com/Hopes-Prospects-Noam-Chomsky/dp/1931859965/ref=pd_sim_b_6
p532
F1.0
sVhttp://www.amazon.com/Help-Me-Mr-Mutt-Problems/dp/0152046283/ref=pd_sim_b_6
p533
F1.0
sVhttp://www.amazon.com/Forgotten-Man-History-Great-Depression/dp/0060936428/ref=pd_sim_b_3
p534
I0
sVhttp://www.amazon.com/Discovering-Popular-Culture-Longman-Topics/dp/0321355962/ref=pd_sim_b_5
p535
I0
sVhttp://www.amazon.com/Laws-Salian-Franks-Middle-Ages/dp/081221322X/ref=pd_sim_b_3
p536
I0
sVhttp://www.amazon.com/Public-Its-Problems-John-Dewey/dp/0804002541/ref=pd_sim_b_3
p537
F1.0
sVhttp://www.amazon.com/God-Caesar-Christian-Political-Action/dp/0891073132/ref=pd_sim_b_5
p538
I0
sVhttp://www.amazon.com/Conservative-Victory-Defeating-Obamas-Radical/dp/0062003054/ref=pd_sim_b_5
p539
F1.0
sVhttp://www.amazon.com/Law-Legislation-Liberty-Mirage-Justice/dp/0226320839/ref=pd_sim_b_1
p540
F1.0
sVhttp://www.amazon.com/Anti-Federalist-Constitutional-Convention-Debates-Classics/dp/0451528840/ref=pd_sim_b_1
p541
I0
sVhttp://www.amazon.com/Running-Office-Strategies-Techniques-Candidates/dp/1590770102/ref=pd_sim_b_4
p542
I0
sVhttp://www.amazon.com/Generosity-Ladder-Your-Financial-Peace/dp/080107276X/ref=pd_sim_b_1
p543
F1.0
sVhttp://www.amazon.com/Inquiry-Nature-Causes-Wealth-Nations/dp/1404310002/ref=pd_sim_b_1
p544
F1.0
sVhttp://www.amazon.com/Nicomachean-Ethics-Aristotle/dp/0872204642/ref=pd_sim_b_3
p545
I0
sVhttp://www.amazon.com/Save-America-Stopping-Secular-Socialist-Machine/dp/1596981903/ref=pd_sim_b_1
p546
F1.0
sVhttp://www.amazon.com/APPROVED-Office-Stock-Self-Inking-Rubber/dp/B001VZ4U7M/ref=pd_sim_op_2
p547
F1.0
sVhttp://www.amazon.com/Recovering-Charles-Jason-F-Wright/dp/1590389646/ref=pd_sim_b_5
p548
F1.0
sVhttp://www.amazon.com/Culture-Corruption-Cheats-Crooks-Cronies/dp/1596986204/ref=pd_sim_b_3
p549
F1.0
sVhttp://www.amazon.com/Little-Polar-Bear-Captivated-World/dp/B004KAB49C/ref=pd_sim_b_4
p550
F0.93333333333333335
sVhttp://www.amazon.com/Plato-Platypus-Aristotle-Aardvark-Boxed/dp/081098377X/ref=pd_sim_b_5
p551
F1.0
sVhttp://www.amazon.com/Outliers-Story-Success-Malcolm-Gladwell/dp/0316017922/ref=pd_sim_b_5
p552
F1.0
sVhttp://www.amazon.com/Liberty-Tyranny-Conservative-Mark-Levin/dp/B004E3XD4E/ref=pd_sim_b_2
p553
F1.0
sVhttp://www.amazon.com/Black-Rednecks-Liberals-Thomas-Sowell/dp/1594031436/ref=pd_sim_b_6
p554
F1.0
sVhttp://www.amazon.com/Future-Dollar-Cornell-Studies-Money/dp/0801475619/ref=pd_sim_b_2
p555
I0
sVhttp://www.amazon.com/Black-Rednecks-Liberals-Thomas-Sowell/dp/1594031436/ref=pd_sim_b_4
p556
F1.0
sVhttp://www.amazon.com/Second-Amendment-David-Barton/dp/0925279773/ref=pd_sim_b_2
p557
F1.0
sVhttp://www.amazon.com/Real-Change-World-Fails-Works/dp/1400106567/ref=pd_sim_b_4
p558
F1.0
sVhttp://www.amazon.com/Gods-War-Terror-Islam-Prophecy/dp/0977102181/ref=pd_sim_b_3
p559
F0.61904761904761907
sVhttp://www.amazon.com/Incorrigible-Children-Ashton-Place-Gallery/dp/0061791121/ref=pd_sim_b_1
p560
I0
sVhttp://www.amazon.com/Aeneid-P-Vergilius-Maro/dp/0872207315/ref=pd_sim_b_6
p561
F1.0
sVhttp://www.amazon.com/Gods-War-Terror-Islam-Prophecy/dp/0977102181/ref=pd_sim_b_5
p562
F0.61904761904761907
sVhttp://www.amazon.com/Emergency-True-Stories-Nations-ERs/dp/0312962657/ref=pd_sim_b_2
p563
F1.0
sVhttp://www.amazon.com/Inquiry-Nature-Causes-Wealth-Nations/dp/193604188X/ref=pd_sim_b_1
p564
F1.0
sVhttp://www.amazon.com/Angel-Animals-Divine-Messengers-Miracles/dp/157731610X/ref=pd_sim_b_1
p565
F1.0
sVhttp://www.amazon.com/Memo-New-President-Presidential-Leadership/dp/0195332458/ref=pd_sim_b_5
p566
I0
sVhttp://www.amazon.com/Battle-America-2008-Extraordinary-Election/dp/B0043RT8L8/ref=pd_sim_b_5
p567
I0
sVhttp://www.amazon.com/Heaven-Real-Little-Astounding-Story/dp/0849946158/ref=pd_sim_b_2
p568
I0
sVhttp://www.amazon.com/Trillion-Dollar-Meltdown-Rollers-Credit/dp/1586485636/ref=pd_sim_b_1
p569
I0
sVhttp://www.amazon.com/Arabian-Penguin-Classics-Wilfred-Thesiger/dp/0141442077/ref=pd_sim_b_2
p570
F1.0
sVhttp://www.amazon.com/Aims-Education-Alfred-North-Whitehead/dp/0029351804/ref=pd_sim_b_6
p571
I0
sVhttp://www.amazon.com/Reagan-His-Own-Hand-Revolutionary/dp/0743219384/ref=pd_sim_b_2
p572
F1.0
sVhttp://www.amazon.com/Paradise-Drive-Always-Future-Tense/dp/0743227395/ref=pd_sim_b_1
p573
F1.0
sVhttp://www.amazon.com/Microeconomics-Private-James-D-Gwartney/dp/0538754338/ref=pd_sim_b_1
p574
F0.8666666666666667
sVhttp://www.amazon.com/Seven-Wonders-That-Will-Change/dp/1451625510/ref=pd_sim_b_3
p575
F0.51515151515151514
sVhttp://www.amazon.com/Running-Mountain-Adventure-Jon-Katz/dp/0767904982/ref=pd_sim_b_3
p576
F1.0
sVhttp://www.amazon.com/Man-Who-Listens-Horses-Real-Life/dp/0345510453/ref=pd_sim_b_6
p577
F1.0
sVhttp://www.amazon.com/Rise-Fourth-Reich-Societies-Threaten/dp/0061245593/ref=pd_sim_b_4
p578
F1.0
sVhttp://www.amazon.com/Bottom-Billion-Poorest-Countries-Failing/dp/0195373383/ref=pd_sim_b_5
p579
I0
sVhttp://www.amazon.com/Crisis-Economics-Course-Future-Finance/dp/1594202508/ref=pd_sim_b_2
p580
I0
sVhttp://www.amazon.com/Rose-Storm-Novel-Jon-Katz/dp/0345502655/ref=pd_sim_b_4
p581
F1.0
sVhttp://www.amazon.com/Patriotic-Grace-What-Why-Need/dp/B002FL5HIW/ref=pd_sim_b_4
p582
F1.0
sVhttp://www.amazon.com/Patriot-Defending-American-Values-President/dp/097794400X/ref=pd_sim_b_2
p583
F1.0
sVhttp://www.amazon.com/Anatomy-Hope-People-Prevail-Illness/dp/0375757759/ref=pd_sim_b_2
p584
I0
sVhttp://www.amazon.com/Hillary-Bill-Clinton-Combo-Set/dp/B001LJCCC8/ref=pd_sim_hpc_4
p585
F1.0
sVhttp://www.amazon.com/Seven-Reasons-Why-Trust-Bible/dp/0802484336/ref=pd_sim_b_6
p586
F1.0
sVhttp://www.amazon.com/Wit-Wisdom-Ronald-Reagan/dp/1596980451/ref=pd_sim_b_3
p587
F1.0
sVhttp://www.amazon.com/Enigma-Capital-Crises-Capitalism/dp/0199758719/ref=pd_sim_b_5
p588
F1.0
sVhttp://www.amazon.com/German-Ideology-including-Feuerbach-Philosophy/dp/1573922587/ref=pd_sim_b_5
p589
F1.0
sVhttp://www.amazon.com/American-Congress-Reader-Steven-Smith/dp/0521720192/ref=pd_sim_b_1
p590
I0
sVhttp://www.amazon.com/American-Life-Autobiography-Ronald-Reagan/dp/145162073X/ref=pd_sim_b_5
p591
F1.0
sVhttp://www.amazon.com/Girl-Who-Kicked-Hornets-Nest/dp/030726999X/ref=pd_sim_b_6
p592
F1.0
sVhttp://www.amazon.com/New-Yorkers-Novel-Cathleen-Schine/dp/0312427832/ref=pd_sim_b_2
p593
F1.0
sVhttp://www.amazon.com/Cheney-Americas-Powerful-Controversial-President/dp/B001AQVTJE/ref=pd_sim_b_3
p594
F1.0
sVhttp://www.amazon.com/Popular-Encyclopedia-Apologetics-Surveying-Christianity/dp/0736920846/ref=pd_sim_b_5
p595
F0.0
sVhttp://www.amazon.com/Through-Dogs-Eyes-Jennifer-Arnold/dp/1400068886/ref=pd_sim_b_1
p596
F1.0
sVhttp://www.amazon.com/Tigers-Twilight-Magic-Tree-House/dp/0679890653/ref=pd_sim_b_1
p597
F1.0
sVhttp://www.amazon.com/International-Trade-Robert-C-Feenstra/dp/142920690X/ref=pd_sim_b_3
p598
I0
sVhttp://www.amazon.com/Meltdown-Free-Market-Collapsed-Government-Bailouts/dp/1596985879/ref=pd_sim_b_6
p599
F0.45454545454545453
sVhttp://www.amazon.com/APPROVED-Self-Inking-Rubber-Stamp/dp/B003P617K8/ref=pd_sim_op_3
p600
I0
sVhttp://www.amazon.com/Northern-Borders-Howard-Frank-Mosher/dp/0618240098/ref=pd_sim_b_1
p601
F1.0
sVhttp://www.amazon.com/Beginners-Guide-Humanities-Philip-Bishop/dp/0205665144/ref=pd_sim_b_1
p602
F1.0
sVhttp://www.amazon.com/Shadow-Party-Hillary-Radicals-Democratic/dp/1595551034/ref=pd_sim_b_1
p603
I0
sVhttp://www.amazon.com/American-Revolution-History-Library-Chronicles/dp/0812970411/ref=pd_sim_b_1
p604
F1.0
sVhttp://www.amazon.com/House-Morgan-American-Banking-Dynasty/dp/B004H8GM1M/ref=pd_sim_b_2
p605
F1.0
sVhttp://www.amazon.com/Economic-Facts-Fallacies-Thomas-Sowell/dp/0465003494/ref=pd_sim_b_3
p606
F1.0
sVhttp://www.amazon.com/Great-Fuzz-Frenzy-Janet-Stevens/dp/B0013L6DKQ/ref=pd_sim_b_1
p607
F1.0
sVhttp://www.amazon.com/Mountain-Tibet-Colin-Thubron/dp/006176826X/ref=pd_sim_b_1
p608
I0
sVhttp://www.amazon.com/Parents-Guide-Preventing-Homosexuality/dp/0830823794/ref=pd_sim_b_2
p609
F1.0
sVhttp://www.amazon.com/LIFE-Remembering-Jackie-Life-Books/dp/B004KAB5X2/ref=pd_sim_b_2
p610
I0
sVhttp://www.amazon.com/Antichrist-Awaited-Messiah-Joel-Richardson/dp/1414104405/ref=pd_sim_b_4
p611
F1.0
sVhttp://www.amazon.com/Franklin-Roosevelt-New-Deal-1932-1940/dp/0061836966/ref=pd_sim_b_4
p612
F1.0
sVhttp://www.amazon.com/Language-Trust-Selling-Ideas-Skeptics/dp/B0043RT8VS/ref=pd_sim_b_5
p613
I0
sVhttp://www.amazon.com/Basic-Counseling-Techniques-Beginning-Therapists/dp/1434355241/ref=pd_sim_b_1
p614
F1.0
sVhttp://www.amazon.com/Forgotten-God-Reversing-Tragic-Neglect/dp/1434767957/ref=pd_sim_b_4
p615
F1.0
sVhttp://www.amazon.com/Shadowy-Horses-Susanna-Kearsley/dp/0739407279/ref=pd_sim_b_1
p616
F1.0
sVhttp://www.amazon.com/Rediscovering-God-America-Newt-Gingrich/dp/B003WUYSRQ/ref=pd_sim_b_6
p617
F1.0
sVhttp://www.amazon.com/Aristotle-Aardvark-Washington-Thomas-Cathcart/dp/B003H4RAOA/ref=pd_sim_b_3
p618
F1.0
sVhttp://www.amazon.com/Managerial-Accounting-Managers-Eric-Noreen/dp/0073527130/ref=pd_sim_b_2
p619
I0
sVhttp://www.amazon.com/Footnotes-Gaza-Graphic-Joe-Sacco/dp/0805092773/ref=pd_sim_b_1
p620
F1.0
sVhttp://www.amazon.com/Economics-Private-James-D-Gwartney/dp/0538754273/ref=pd_sim_b_1
p621
F0.8666666666666667
sVhttp://www.amazon.com/Never-Metaphor-Didnt-Like-Comprehensive/dp/0061358134/ref=pd_sim_b_4
p622
F1.0
sVhttp://www.amazon.com/Capital-Abridged-Oxford-Worlds-Classics/dp/0199535701/ref=pd_sim_b_4
p623
F1.0
sVhttp://www.amazon.com/Bridge-Called-Hope-Stories-Triumph/dp/1590526554/ref=pd_sim_b_1
p624
F1.0
sVhttp://www.amazon.com/Psychological-Nudity-Michael-Savage/dp/1427634017/ref=pd_sim_b_5
p625
F1.0
sVhttp://www.amazon.com/God-George-W-Bush-Spiritual/dp/006077956X/ref=pd_sim_b_2
p626
F1.0
sVhttp://www.amazon.com/Globalizing-Capital-History-International-Monetary/dp/0691139377/ref=pd_sim_b_5
p627
F1.0
sVhttp://www.amazon.com/Cries-Cross-Journey-Heart-Jesus/dp/0802411118/ref=pd_sim_b_6
p628
F1.0
sVhttp://www.amazon.com/Arrogance-Rescuing-America-Media-Elite/dp/0446693642/ref=pd_sim_b_3
p629
F1.0
sVhttp://www.amazon.com/Active-Liberty-Interpreting-Democratic-Constitution/dp/0307274942/ref=pd_sim_b_6
p630
I0
sVhttp://www.amazon.com/Looking-Miza-Juliana-Hatkoff/dp/0545085403/ref=pd_sim_b_4
p631
F0.93333333333333335
sVhttp://www.amazon.com/Crossfire-Plot-That-Killed-Kennedy/dp/B0009PP2I6/ref=pd_sim_b_5
p632
F1.0
sVhttp://www.amazon.com/Dont-Shoot-Dog-Teaching-Training/dp/0553380397/ref=pd_sim_b_1
p633
F1.0
sVhttp://www.amazon.com/Politics-Presidents-Make-Leadership-Clinton/dp/0674689372/ref=pd_sim_b_5
p634
I0
sVhttp://www.amazon.com/Million-Dollar-Kick-Dan-Gutman/dp/1423100824/ref=pd_sim_b_1
p635
F1.0
sVhttp://www.amazon.com/Pennys-Christmas-Miracle-Jason-Wright/dp/1606411675/ref=pd_sim_b_2
p636
F1.0
sVhttp://www.amazon.com/Study-Guide-Mankiws-Principles-Macroeconomics/dp/0324591225/ref=pd_sim_b_5
p637
F1.0
sVhttp://www.amazon.com/Study-Guide-Mankiws-Principles-Macroeconomics/dp/0324591225/ref=pd_sim_b_4
p638
F1.0
sVhttp://www.amazon.com/Accoutrements-11742-Frueds-Therapy-Ball/dp/B000R820QC/ref=pd_sim_t_3
p639
F1.0
sVhttp://www.amazon.com/Sucker-Punch-Dazed-Killed-Kings/dp/159555033X/ref=pd_sim_b_5
p640
F1.0
sVhttp://www.amazon.com/Poppys-Return-Poppy-Stories-Avi/dp/0060000147/ref=pd_sim_b_2
p641
F1.0
sVhttp://www.amazon.com/American-Wife-Novel-Times-Notable/dp/0812975405/ref=pd_sim_b_5
p642
F1.0
sVhttp://www.amazon.com/Veil-Secret-Wars-CIA-1981-1987/dp/0743274032/ref=pd_sim_b_6
p643
F1.0
sVhttp://www.amazon.com/Accoutrements-11742-Frueds-Therapy-Ball/dp/B000R820QC/ref=pd_sim_t_5
p644
F1.0
sVhttp://www.amazon.com/Crystallizing-Public-Opinion-Edward-Bernays/dp/193543926X/ref=pd_sim_b_2
p645
I0
sVhttp://www.amazon.com/Economic-Approach-Human-Behavior/dp/0226041123/ref=pd_sim_b_3
p646
I0
sVhttp://www.amazon.com/Energy-Myths-Realities-Bringing-Science/dp/0844743283/ref=pd_sim_b_6
p647
F1.0
sVhttp://www.amazon.com/Ereths-Birthday-Poppy-Stories-Avi/dp/0380804905/ref=pd_sim_b_3
p648
F1.0
sVhttp://www.amazon.com/Great-Derangement-Terrifying-Politics-Religion/dp/038552062X/ref=pd_sim_b_1
p649
I0
sVhttp://www.amazon.com/Ereths-Birthday-Poppy-Stories-Avi/dp/0380804905/ref=pd_sim_b_6
p650
F1.0
sVhttp://www.amazon.com/Antioxidant-Cookbook-Nutritionists-Secret-Strategy/dp/0912845139/ref=pd_sim_b_6
p651
F1.0
sVhttp://www.amazon.com/Constitution-Liberty-F-Hayek/dp/0226320847/ref=pd_sim_b_6
p652
F1.0
sVhttp://www.amazon.com/Prize-Epic-Quest-Money-Power/dp/1439110123/ref=pd_sim_b_1
p653
F1.0
sVhttp://www.amazon.com/Financial-Modeling-3rd-Simon-Benninga/dp/0262026287/ref=pd_sim_b_4
p654
I0
sVhttp://www.amazon.com/I-Survived-Shark-Attacks-1916/dp/0545206952/ref=pd_sim_b_2
p655
F1.0
sVhttp://www.amazon.com/Dogs-Purpose-W-Bruce-Cameron/dp/0765326264/ref=pd_sim_b_5
p656
I0
sVhttp://www.amazon.com/Illuminati-Facts-Fiction-Mark-Dice/dp/0967346657/ref=pd_sim_b_1
p657
F1.0
sVhttp://www.amazon.com/Accoutrements-10884-Sigmund-Action-Figure/dp/B0006FU9DC/ref=pd_sim_sg_4
p658
F1.0
sVhttp://www.amazon.com/Domination-Arts-Resistance-Hidden-Transcripts/dp/0300056699/ref=pd_sim_b_4
p659
F1.0
sVhttp://www.amazon.com/Accoutrements-11853-Excuse-INSTANT-EXCUSE-BALL/dp/B001DNA1VG/ref=pd_sim_t_2
p660
F1.0
sVhttp://www.amazon.com/Rule-Lawyers-Litigation-Threatens-Americas/dp/0312331193/ref=pd_sim_b_3
p661
F1.0
sVhttp://www.amazon.com/Surrender-Appeasing-Islam-Sacrificing-Freedom/dp/0767928377/ref=pd_sim_b_2
p662
I0
sVhttp://www.amazon.com/Tarra-Bella-Elephant-Became-Friends/dp/0399254439/ref=pd_sim_b_1
p663
I0
sVhttp://www.amazon.com/Hank-Zipzer-Collection-Henry-Winkler/dp/0448439778/ref=pd_sim_b_4
p664
F1.0
sVhttp://www.amazon.com/Valley-Forge-Washington-Crucible-Victory/dp/0312591071/ref=pd_sim_b_4
p665
F1.0
sVhttp://www.amazon.com/Inside-Revival-Changed-Hearts-Since/dp/1414338007/ref=pd_sim_b_4
p666
F1.0
sVhttp://www.amazon.com/Day-Iguana-Hank-Zipzer-Underachiever/dp/0448432129/ref=pd_sim_b_2
p667
F1.0
sVhttp://www.amazon.com/Captains-Consciousness-Advertising-Consumer-Culture/dp/0465021557/ref=pd_sim_b_2
p668
I0
sVhttp://www.amazon.com/Beginners-Guide-Humanities-Philip-Bishop/dp/0205665144/ref=pd_sim_b_5
p669
F1.0
sVhttp://www.amazon.com/Capitalism-Unbound-Incontestable-Individual-Rights/dp/0761849696/ref=pd_sim_b_3
p670
F1.0
sVhttp://www.amazon.com/Brief-History-Neoliberalism-David-Harvey/dp/0199283273/ref=pd_sim_b_1
p671
F1.0
sVhttp://www.amazon.com/Abnormal-Psychology-Changing-Pearson-Library/dp/0205773400/ref=pd_sim_b_6
p672
I0
sVhttp://www.amazon.com/Mismeasuring-Our-Lives-Why-Doesnt/dp/1595585192/ref=pd_sim_b_5
p673
F0.66666666666666663
sVhttp://www.amazon.com/Slander-Liberal-About-American-Right/dp/1400049520/ref=pd_sim_b_4
p674
F0.64444444444444449
sVhttp://www.amazon.com/Profit-Over-People-Neoliberalism-Global/dp/1888363827/ref=pd_sim_b_3
p675
F0.72727272727272729
sVhttp://www.amazon.com/Americas-Great-Depression-Murray-Rothbard/dp/1607961105/ref=pd_sim_b_6
p676
F1.0
sVhttp://www.amazon.com/Eisenhower-Soldier-President-Renowned-One/dp/0671747584/ref=pd_sim_b_2
p677
F1.0
sVhttp://www.amazon.com/Literature-Adventures-Human-Spirit-Vol/dp/0131412515/ref=pd_sim_b_4
p678
F1.0
sVhttp://www.amazon.com/Impounded-Dorothea-Censored-Japanese-Internment/dp/0393330907/ref=pd_sim_b_4
p679
I0
sVhttp://www.amazon.com/Cure-Capitalism-Save-American-Health/dp/159403219X/ref=pd_sim_b_4
p680
I0
sVhttp://www.amazon.com/Plan-Attack-Bob-Woodward/dp/B000YTFN1I/ref=pd_sim_b_1
p681
F1.0
sVhttp://www.amazon.com/Ethnic-America-History-Thomas-Sowell/dp/0465020755/ref=pd_sim_b_3
p682
F1.0
sVhttp://www.amazon.com/Adventures-Human-Spirit-Philip-Bishop/dp/0205765378/ref=pd_sim_b_3
p683
F1.0
sVhttp://www.amazon.com/Esperanza-Rising-Pam-Munoz-Ryan/dp/043912042X/ref=pd_sim_b_4
p684
F1.0
sVhttp://www.amazon.com/Mismeasuring-Our-Lives-Why-Doesnt/dp/1595585192/ref=pd_sim_b_2
p685
F0.66666666666666663
sVhttp://www.amazon.com/Sarcastic-Ball-Magic-Gift-Game/dp/B0006GK9RC/ref=pd_sim_t_5
p686
F1.0
sVhttp://www.amazon.com/Schaums-Outline-Introduction-Mathematical-Economics/dp/007135896X/ref=pd_sim_b_5
p687
F1.0
sVhttp://www.amazon.com/Shy-Boy-Horse-That-Came/dp/0060932899/ref=pd_sim_b_1
p688
F1.0
sVhttp://www.amazon.com/Koran-Very-Short-Introduction-Introductions/dp/0192853449/ref=pd_sim_b_1
p689
I0
sVhttp://www.amazon.com/Econometric-Analysis-Cross-Section-Panel/dp/0262232588/ref=pd_sim_b_5
p690
I0
sVhttp://www.amazon.com/Politician-Insiders-Account-Edwardss-Presidency/dp/B0045JK6EM/ref=pd_sim_b_3
p691
F1.0
sVhttp://www.amazon.com/Broke-Restore-Trust-Truth-Treasure/dp/1439187193/ref=pd_sim_b_3
p692
F1.0
sVhttp://www.amazon.com/Art-War-Spirituality-Conflict-Annotated/dp/1594732442/ref=pd_sim_b_3
p693
F1.0
sVhttp://www.amazon.com/What-Every-Christian-Needs-Know/dp/0984332782/ref=pd_sim_b_2
p694
F1.0
sVhttp://www.amazon.com/Capital-Critique-Political-Economy-Classics/dp/0140445684/ref=pd_sim_b_6
p695
F1.0
sVhttp://www.amazon.com/New-Reagan-Revolution-Principles-Greatness/dp/031264454X/ref=pd_sim_b_2
p696
F1.0
sVhttp://www.amazon.com/Free-Choose-Statement-Milton-Friedman/dp/0156334607/ref=pd_sim_b_1
p697
F1.0
sVhttp://www.amazon.com/WORDS-THAT-WORK-WHAT-PEOPLE/dp/B000YFAC40/ref=pd_sim_b_3
p698
F1.0
sVhttp://www.amazon.com/Elementary-Religious-Oxford-Worlds-Classics/dp/0199540128/ref=pd_sim_b_5
p699
F1.0
sVhttp://www.amazon.com/Improving-Survey-Questions-Evaluation-Research/dp/0803945833/ref=pd_sim_b_1
p700
I0
sVhttp://www.amazon.com/Pillars-Prosperity-Ron-Paul/dp/1933550244/ref=pd_sim_b_4
p701
F1.0
sVhttp://www.amazon.com/Dont-Think-Elephant-Debate-Progressives/dp/1931498717/ref=pd_sim_b_2
p702
F1.0
sVhttp://www.amazon.com/Old-School-Tobias-Wolff/dp/0375701494/ref=pd_sim_b_3
p703
I0
sVhttp://www.amazon.com/Devils-Chaplain-Reflections-Hope-Science/dp/0618485392/ref=pd_sim_b_4
p704
F1.0
sVhttp://www.amazon.com/Political-Changing-Societies-Stimson-Lectures/dp/0300116209/ref=pd_sim_b_1
p705
I0
sVhttp://www.amazon.com/Inside-Revolution-Followers-Jefferson-Transform/dp/1414319320/ref=pd_sim_b_2
p706
F1.0
sVhttp://www.amazon.com/Goldstone-Report-Landmark-Investigation-Conflict/dp/1568586418/ref=pd_sim_b_2
p707
F1.0
sVhttp://www.amazon.com/Poppy-Rye-Stories-Avi/dp/0380797178/ref=pd_sim_b_5
p708
F1.0
sVhttp://www.amazon.com/Rescuing-Sprite-Lovers-Story-Anguish/dp/1439165432/ref=pd_sim_b_4
p709
F1.0
sVhttp://www.amazon.com/Godless-Church-Liberalism-Ann-Coulter/dp/1400054214/ref=pd_sim_b_2
p710
F1.0
sVhttp://www.amazon.com/My-Dogs-Scaredy-Cat-10-Halloween/dp/044843878X/ref=pd_sim_b_3
p711
F1.0
sVhttp://www.amazon.com/Savage-Nation-America-Liberal-Language/dp/0452284945/ref=pd_sim_b_3
p712
F1.0
sVhttp://www.amazon.com/Economic-Fallacies-Frederic-Bastiat/dp/1931541027/ref=pd_sim_b_6
p713
F1.0
sVhttp://www.amazon.com/Iliad-Homer/dp/0872203522/ref=pd_sim_b_3
p714
F1.0
sVhttp://www.amazon.com/America-Last-World-Triumph-Freedom/dp/B001NXDRLW/ref=pd_sim_b_1
p715
F1.0
sVhttp://www.amazon.com/Patriots-History-United-States-Columbuss/dp/B000V5ZTNM/ref=pd_sim_b_3
p716
F1.0
sVhttp://www.amazon.com/Course-Game-Theory-Martin-Osborne/dp/0262650401/ref=pd_sim_b_3
p717
I0
sVhttp://www.amazon.com/Invasion-America-Welcomes-Terrorists-Criminals/dp/0895260751/ref=pd_sim_b_6
p718
F1.0
sVhttp://www.amazon.com/Heidegger-Hippo-Through-Those-Pearly/dp/0143118250/ref=pd_sim_b_1
p719
F1.0
sVhttp://www.amazon.com/Basic-Economics-4th-Ed-Economy/dp/0465022529/ref=pd_sim_b_6
p720
F1.0
sVhttp://www.amazon.com/23-Questions-About-Hell-DVD/dp/1616380276/ref=pd_sim_b_2
p721
F1.0
sVhttp://www.amazon.com/Astrology-Karma-Transformation-Inner-Dimensions/dp/0916360547/ref=pd_sim_b_2
p722
F1.0
sVhttp://www.amazon.com/How-Evil-Works-Understanding-Transforming/dp/1439168199/ref=pd_sim_b_1
p723
I0
sVhttp://www.amazon.com/Reasonableness-Christianity-Discourse-Miracles-Religious/dp/0804703418/ref=pd_sim_b_1
p724
F1.0
sVhttp://www.amazon.com/New-World-Order-Facts-Fiction/dp/0967346673/ref=pd_sim_b_5
p725
F1.0
sVhttp://www.amazon.com/Complete-Book-Bible-Trivia/dp/0842304215/ref=pd_sim_b_1
p726
I0
sVhttp://www.amazon.com/Americas-Achilles-Heel-Biological-International/dp/0262561182/ref=pd_sim_b_4
p727
F1.0
sVhttp://www.amazon.com/Amusing-Ourselves-Death-Discourse-Business/dp/014303653X/ref=pd_sim_b_6
p728
F1.0
sVhttp://www.amazon.com/Seize-Moment-Americas-Challenge-One-Superpower/dp/0671743430/ref=pd_sim_b_2
p729
F1.0
sVhttp://www.amazon.com/Anti-Obama-Bumper-Sticker-Change/dp/B002ZO2MH8/ref=pd_sim_auto_1
p730
F1.0
sVhttp://www.amazon.com/Discover-Your-Inner-Economist-Incentives/dp/B001OMHUVU/ref=pd_sim_b_4
p731
I0
sVhttp://www.amazon.com/Dissensus-Politics-Aesthetics-Jacques-Ranci%C3%A8re/dp/1847064450/ref=pd_sim_b_5
p732
F1.0
sVhttp://www.amazon.com/Gmo-Trilogy-Seeds-Deception-Set/dp/0972966536/ref=pd_sim_b_4
p733
I0
sVhttp://www.amazon.com/Colonel-Roosevelt-Edmund-Morris/dp/0375504877/ref=pd_sim_b_3
p734
F1.0
sVhttp://www.amazon.com/Complete-Stories-Truman-Capote/dp/140009691X/ref=pd_sim_b_2
p735
F1.0
sVhttp://www.amazon.com/Liberty-Classics-John-Stuart-Mill/dp/0915144433/ref=pd_sim_b_6
p736
F1.0
sVhttp://www.amazon.com/Death-Life-American-Journalism-Revolution/dp/1568586051/ref=pd_sim_b_5
p737
F1.0
sVhttp://www.amazon.com/Arena-Memoir-Victory-Defeat-Renewal/dp/0671700960/ref=pd_sim_b_4
p738
F1.0
sVhttp://www.amazon.com/Irrational-Exuberance-Robert-J-Shiller/dp/0767923634/ref=pd_sim_b_2
p739
F1.0
sVhttp://www.amazon.com/Storyselling-Financial-Advisors-Producers-Sell/dp/0793136644/ref=pd_sim_b_6
p740
F1.0
sVhttp://www.amazon.com/Complete-Christian-Guide-Understanding-Homosexuality/dp/0736925074/ref=pd_sim_b_5
p741
I0
sVhttp://www.amazon.com/Night-Flunked-Field-Trip-Zipzer/dp/0448433524/ref=pd_sim_b_4
p742
F1.0
sVhttp://www.amazon.com/Supreme-Commander-Years-Dwight-Eisenhower/dp/1578062063/ref=pd_sim_b_1
p743
F1.0
sVhttp://www.amazon.com/High-Crimes-Misdemeanors-Against-Clinton/dp/0895261138/ref=pd_sim_b_6
p744
F1.0
sVhttp://www.amazon.com/Speaking-Well-Peggy-Noonan/dp/0060987405/ref=pd_sim_b_2
p745
F1.0
sVhttp://www.amazon.com/Design-Business-Thinking-Competitive-Advantage/dp/1422177807/ref=pd_sim_b_1
p746
I0
sVhttp://www.amazon.com/Inconvenient-Book-Solutions-Biggest-Problems/dp/1416560440/ref=pd_sim_b_2
p747
F1.0
sVhttp://www.amazon.com/History-Economic-Thought-Lionel-Robbins/dp/0691070148/ref=pd_sim_b_3
p748
I0
sVhttp://www.amazon.com/Hegemony-Survival-Americas-Dominance-American/dp/0805076883/ref=pd_sim_b_4
p749
F1.0
sVhttp://www.amazon.com/Shadow-Masters-International-Governments-Secret-Service/dp/0979988616/ref=pd_sim_b_2
p750
I0
sVhttp://www.amazon.com/Mariana-Susanna-Kearsley/dp/0749007060/ref=pd_sim_b_3
p751
F1.0
sVhttp://www.amazon.com/Choice-Fable-Free-Trade-Protection/dp/0131433547/ref=pd_sim_b_6
p752
F1.0
sVhttp://www.amazon.com/Condition-Postmodernity-Enquiry-Origins-Cultural/dp/0631162941/ref=pd_sim_b_5
p753
F1.0
sVhttp://www.amazon.com/Giver-Lois-Lowry/dp/0385732554/ref=pd_sim_b_1
p754
F1.0
sVhttp://www.amazon.com/Empire-Illusion-Literacy-Triumph-Spectacle/dp/1568586132/ref=pd_sim_b_1
p755
F1.0
sVhttp://www.amazon.com/BARBARIANS-INSIDE-GATES-HOOVER-PUBLICATION/dp/081799582X/ref=pd_sim_b_2
p756
F1.0
sVhttp://www.amazon.com/Landmark-Inside-Americas-Publicaffairs-Reports/dp/B004E3XD3U/ref=pd_sim_b_2
p757
I0
sVhttp://www.amazon.com/Accoutrements-Dill-Pickle-Flavored-Mints/dp/B003JIFECO/ref=pd_sim_t_1
p758
F1.0
sVhttp://www.amazon.com/Simple-Government-Twelve-Washington-Trillion/dp/1595230734/ref=pd_sim_b_1
p759
F1.0
sVhttp://www.amazon.com/Lead-Atheist-Evidence-Cant-Think/dp/1935071068/ref=pd_sim_b_6
p760
F1.0
sVhttp://www.amazon.com/Cooking-Alinskys-Goose-Capitalist-Cookbook/dp/0984155902/ref=pd_sim_b_6
p761
I0
sVhttp://www.amazon.com/Peddling-Prosperity-Economic-Diminished-Expectations/dp/0393312925/ref=pd_sim_b_4
p762
F1.0
sVhttp://www.amazon.com/No-Logo-Anniversary-Introduction-Author/dp/0312429274/ref=pd_sim_b_1
p763
F1.0
sVhttp://www.amazon.com/City-Glass-Graphic-Paul-Karasik/dp/0312423608/ref=pd_sim_b_6
p764
F1.0
sVhttp://www.amazon.com/Glass-Castle-Memoir-Jeannette-Walls/dp/074324754X/ref=pd_sim_b_5
p765
I0
sVhttp://www.amazon.com/Makers-Ancient-Strategy-Persian-Wars/dp/0691137900/ref=pd_sim_b_1
p766
F1.0
sVhttp://www.amazon.com/Rule-Secrecy-Trilateral-Commission-Freemasons/dp/0060931841/ref=pd_sim_b_3
p767
F1.0
sVhttp://www.amazon.com/Before-Go-Letters-Children-Matters/dp/1580512240/ref=pd_sim_b_1
p768
I0
sVhttp://www.amazon.com/D-Interactive-Anatomy-Student-Guide/dp/0805359117/ref=pd_sim_b_3
p769
I0
sVhttp://www.amazon.com/Bobos-Paradise-Upper-Class-There/dp/0684853787/ref=pd_sim_b_5
p770
F1.0
sVhttp://www.amazon.com/Clinical-Companion-Fundamentals-Nursing-Patricia/dp/032305482X/ref=pd_sim_b_3
p771
F1.0
sVhttp://www.amazon.com/BUREAUCRACY-Lib-Works-Ludwig-Mises/dp/0865976643/ref=pd_sim_b_5
p772
F1.0
sVhttp://www.amazon.com/Keys-Good-Government-David-Barton/dp/0925279366/ref=pd_sim_b_6
p773
F1.0
sVhttp://www.amazon.com/Division-Labor-Society-Emile-Durkheim/dp/0684836386/ref=pd_sim_b_6
p774
I0
sVhttp://www.amazon.com/When-Homosexuality-Hits-Home-Theyre/dp/0736912010/ref=pd_sim_b_1
p775
F1.0
sVhttp://www.amazon.com/Purging-Your-House-Pruning-Family/dp/1616381868/ref=pd_sim_b_2
p776
F1.0
sVhttp://www.amazon.com/Five-Lessons-Wagner-Alain-Badiou/dp/1844674819/ref=pd_sim_b_4
p777
F0.46666666666666667
sVhttp://www.amazon.com/Little-Beauty-Anthony-Browne/dp/0763649678/ref=pd_sim_b_6
p778
I0
sVhttp://www.amazon.com/John-Paul-Great-Remembering-Spiritual/dp/B003UYV200/ref=pd_sim_b_4
p779
F1.0
sVhttp://www.amazon.com/Communist-Manifesto-Karl-Marx/dp/1936594439/ref=pd_sim_b_3
p780
F1.0
sVhttp://www.amazon.com/Skills-Performance-Checklists-Fundamentals-Nursing/dp/0323052517/ref=pd_sim_b_6
p781
F1.0
sVhttp://www.amazon.com/One-Minute-After-You-Die/dp/0802463061/ref=pd_sim_b_3
p782
F1.0
sVhttp://www.amazon.com/11-Birthdays-Wendy-Mass/dp/0545052408/ref=pd_sim_b_2
p783
I0
sVhttp://www.amazon.com/Hope-Higher-Ground-Restoring-Greatness/dp/B0030EG16K/ref=pd_sim_b_4
p784
F1.0
sVhttp://www.amazon.com/Politically-Incorrect-Guide-Constitution-Guides/dp/1596985054/ref=pd_sim_b_3
p785
I0
sVhttp://www.amazon.com/Chosen-Horse-Susan-Richards/dp/0156031175/ref=pd_sim_b_6
p786
F1.0
sVhttp://www.amazon.com/How-Democratic-American-Constitution-Second/dp/0300095244/ref=pd_sim_b_6
p787
I0
sVhttp://www.amazon.com/Supremes-Greatest-Hits-Revised-Updated/dp/1402768265/ref=pd_sim_b_6
p788
F1.0
sVhttp://www.amazon.com/Questions-About-American-History-Supposed/dp/0307346692/ref=pd_sim_b_6
p789
F1.0
sVhttp://www.amazon.com/Moral-Politics-Liberals-Conservatives-Think/dp/0226467716/ref=pd_sim_b_1
p790
F1.0
sVhttp://www.amazon.com/Dred-Scotts-Revenge-History-Freedom/dp/B003F76HAW/ref=pd_sim_b_4
p791
F1.0
sVhttp://www.amazon.com/Be-Solution-Entrepreneurs-Conscious-Capitalists/dp/0470450037/ref=pd_sim_b_5
p792
I0
sVhttp://www.amazon.com/Human-Action-Ludwig-von-Mises/dp/0865976317/ref=pd_sim_b_5
p793
F1.0
sVhttp://www.amazon.com/Angel-Horses-Divine-Messengers-Hope/dp/1577315189/ref=pd_sim_b_4
p794
F1.0
sVhttp://www.amazon.com/Duct-Tape-Marketing-Practical-Business/dp/159555131X/ref=pd_sim_b_2
p795
I0
sVhttp://www.amazon.com/Great-Unraveling-Century-Updated-Expanded/dp/0393326055/ref=pd_sim_b_2
p796
I0
sVhttp://www.amazon.com/Liberty-Versus-Tyranny-Socialism-Controversial/dp/0817949127/ref=pd_sim_b_1
p797
F1.0
sVhttp://www.amazon.com/Advertising-Media-Planning-Seventh-Roger/dp/0071703128/ref=pd_sim_b_1
p798
I0
sVhttp://www.amazon.com/Enlightened-Economy-Economic-History-1700-1850/dp/0300124554/ref=pd_sim_b_5
p799
I0
sVhttp://www.amazon.com/Blind-Hope-Unwanted-Woman-Rescued/dp/1601422806/ref=pd_sim_b_6
p800
F1.0
sVhttp://www.amazon.com/Worlds-History-1-1500-3rd/dp/013177316X/ref=pd_sim_b_6
p801
F1.0
sVhttp://www.amazon.com/Capitalism-Ideal-Ayn-Rand/dp/0451147952/ref=pd_sim_b_6
p802
F0.84615384615384615
sVhttp://www.amazon.com/Peoples-History-American-Empire/dp/0805087443/ref=pd_sim_b_3
p803
F1.0
sVhttp://www.amazon.com/Liberty-Defined-Essential-Issues-Freedom/dp/145550145X/ref=pd_sim_b_3
p804
F1.0
sVhttp://www.amazon.com/Generation-Americans-Confident-Assertive-Entitled/dp/0743276981/ref=pd_sim_b_1
p805
I0
sVhttp://www.amazon.com/Melissa-Doug-4854-Dachshund-Plush/dp/B000QF3VRI/ref=pd_sim_t_2
p806
F1.0
sVhttp://www.amazon.com/Confessions-Advertising-Man-David-Ogilvy/dp/1904915019/ref=pd_sim_b_1
p807
I0
sVhttp://www.amazon.com/Negrophilia-Pedestal-Americas-Racial-Obsession/dp/1935071823/ref=pd_sim_b_3
p808
F1.0
sVhttp://www.amazon.com/60s-Memory-History-David-Farber/dp/0807844624/ref=pd_sim_b_2
p809
I0
sVhttp://www.amazon.com/Reagan-Letters-Kiron-K-Skinner/dp/0743219678/ref=pd_sim_b_3
p810
F1.0
sVhttp://www.amazon.com/Lost-Found-Andrew-Clements/dp/1416909869/ref=pd_sim_b_2
p811
F1.0
sVhttp://www.amazon.com/Alastair-Campbell-Diaries-Prelude-1994-1997/dp/0091797268/ref=pd_sim_b_4
p812
I0
sVhttp://www.amazon.com/Political-Science-Research-Methods-Buttolph/dp/0872894428/ref=pd_sim_b_5
p813
I0
sVhttp://www.amazon.com/All-Practical-Purposes-Mathematical-Literacy/dp/1429209003/ref=pd_sim_b_2
p814
I0
sVhttp://www.amazon.com/Absolute-Power-Corruption-Clinton-Reno-Department/dp/0895261472/ref=pd_sim_b_5
p815
F1.0
sVhttp://www.amazon.com/Amazing-Gracie-Dogs-Dan-Dye/dp/0761129758/ref=pd_sim_b_4
p816
I0
sVhttp://www.amazon.com/Ronald-Reagan-Rendezvous-Newt-Gingrich/dp/1450746721/ref=pd_sim_b_6
p817
F1.0
sVhttp://www.amazon.com/Whats-Matter-Kansas-Conservatives-America/dp/B000FTWB3K/ref=pd_sim_b_1
p818
I0
sVhttp://www.amazon.com/Housing-Boom-Bust-Thomas-Sowell/dp/B003NHR6WC/ref=pd_sim_b_5
p819
F1.0
sVhttp://www.amazon.com/Can-Capitalism-Survive-Creative-Destruction/dp/0061928011/ref=pd_sim_b_1
p820
F1.0
sVhttp://www.amazon.com/Basic-Economics-Common-Sense-Economy/dp/0465002609/ref=pd_sim_b_6
p821
F1.0
sVhttp://www.amazon.com/Dogs-Proud-Spirit-Melanie-Bowles/dp/1561644781/ref=pd_sim_b_2
p822
F1.0
sVhttp://www.amazon.com/Babylons-Banksters-Alchemy-Physics-Religion/dp/1932595791/ref=pd_sim_b_6
p823
F1.0
sVhttp://www.amazon.com/United-Hate-Romance-Tyranny-Terror/dp/1935071602/ref=pd_sim_b_3
p824
F1.0
sVhttp://www.amazon.com/Things-We-Do-Love-Novel/dp/0345520807/ref=pd_sim_b_1
p825
F1.0
sVhttp://www.amazon.com/Art-Strategy-Theorists-Success-Business/dp/0393337170/ref=pd_sim_b_6
p826
F1.0
sVhttp://www.amazon.com/Enslaved-Ducks-Bob-Tarte/dp/1565124502/ref=pd_sim_b_2
p827
I0
sVhttp://www.amazon.com/Art-Long-View-Planning-Uncertain/dp/0385267320/ref=pd_sim_b_1
p828
I0
sVhttp://www.amazon.com/Political-Mind-Understand-21st-Century-18th-Century/dp/B0020MMBMG/ref=pd_sim_b_6
p829
F1.0
sVhttp://www.amazon.com/Political-Mind-Understand-21st-Century-18th-Century/dp/B0020MMBMG/ref=pd_sim_b_5
p830
F1.0
sVhttp://www.amazon.com/Original-Intent-Courts-Constitution-Religion/dp/1932225633/ref=pd_sim_b_5
p831
F1.0
sVhttp://www.amazon.com/Gettysburg-Novel-Civil-Newt-Gingrich/dp/0312987250/ref=pd_sim_b_3
p832
F1.0
sVhttp://www.amazon.com/Great-Divergence-Europe-Making-Economy/dp/0691090106/ref=pd_sim_b_6
p833
I0
sVhttp://www.amazon.com/2010-Take-Back-America-Battle/dp/B004AYDAZ4/ref=pd_sim_b_4
p834
F1.0
sVhttp://www.amazon.com/Exorbitant-Privilege-Dollar-International-Monetary/dp/0199753784/ref=pd_sim_b_2
p835
F1.0
sVhttp://www.amazon.com/Share-Your-Faith-Greg-Laurie/dp/0842333452/ref=pd_sim_b_3
p836
F1.0
sVhttp://www.amazon.com/Between-Authority-Interpretation-Theory-Practical/dp/0199596379/ref=pd_sim_b_2
p837
F1.0
sVhttp://www.amazon.com/Love-You-Ronnie-Letters-Ronald/dp/0375760512/ref=pd_sim_b_3
p838
I0
sVhttp://www.amazon.com/When-Nation-Forgets-God-Lessons/dp/0802446566/ref=pd_sim_b_6
p839
F1.0
sVhttp://www.amazon.com/Freakonomics-Economist-Explores-Hidden-Everything/dp/0060731338/ref=pd_sim_b_3
p840
F1.0
sVhttp://www.amazon.com/Winters-Tail-Little-Dolphin-Learned/dp/0545123356/ref=pd_sim_b_1
p841
F0.93333333333333335
sVhttp://www.amazon.com/Palestine-Peace-Apartheid-Jimmy-Carter/dp/B001SARCHA/ref=pd_sim_b_3
p842
F1.0
sVhttp://www.amazon.com/Lost-Souls-Found-Inspiring-Stories/dp/0982489536/ref=pd_sim_b_3
p843
I0
sVhttp://www.amazon.com/Falling-Angels-Tracy-Chevalier/dp/B000234N76/ref=pd_sim_b_1
p844
F1.0
sVhttp://www.amazon.com/Applied-Economics-Thinking-Beyond-Stage/dp/0465003451/ref=pd_sim_b_1
p845
F1.0
sVhttp://www.amazon.com/Genes-Giants-Monsters-Men-Surviving/dp/1936239086/ref=pd_sim_b_1
p846
F1.0
sVhttp://www.amazon.com/Strategies-Successful-Writing-Rhetoric-MyCompLab/dp/0205689442/ref=pd_sim_b_6
p847
I0
sVhttp://www.amazon.com/Dogs-Bedlam-Farm-Adventure-Sixteen/dp/0812972503/ref=pd_sim_b_3
p848
F1.0
sVhttp://www.amazon.com/Liberalism-Mental-Disorder-Savage-Solutions/dp/B000RWD3JG/ref=pd_sim_b_1
p849
F1.0
sVhttp://www.amazon.com/Man-Economy-State-Power-Market/dp/1933550279/ref=pd_sim_b_5
p850
F1.0
sVhttp://www.amazon.com/Bulletproof-George-Washington-David-Barton/dp/1932225005/ref=pd_sim_b_6
p851
F1.0
sVhttp://www.amazon.com/King-Lies-John-Hart/dp/0312677375/ref=pd_sim_b_3
p852
F1.0
sVhttp://www.amazon.com/Dogs-Who-Found-Me-Learned/dp/B001LNOOM0/ref=pd_sim_b_5
p853
F1.0
sVhttp://www.amazon.com/Lost-Boy-Story-Greg-Laurie/dp/0830745785/ref=pd_sim_b_3
p854
F1.0
sVhttp://www.amazon.com/Ron-Browns-Body-Presidency-Hillarys/dp/B000C4SSW6/ref=pd_sim_b_1
p855
F1.0
sVhttp://www.amazon.com/Accoutrements-12041-Uh-Emergency-Underpants/dp/B003DM3MN4/ref=pd_sim_k_6
p856
F1.0
sVhttp://www.amazon.com/Why-Left-Jihad-Terrorism-Radical/dp/0977102114/ref=pd_sim_b_2
p857
F1.0
sVhttp://www.amazon.com/End-Faith-Religion-Terror-Future/dp/0393327655/ref=pd_sim_b_1
p858
I0
sVhttp://www.amazon.com/Philosophers-Stone-Alchemy-Secret-Research/dp/1932595406/ref=pd_sim_b_1
p859
F1.0
sVhttp://www.amazon.com/Do-Stand-Alone-Against-Political/dp/0743506448/ref=pd_sim_b_2
p860
F1.0
sVhttp://www.amazon.com/Bible-Homosexual-Practice-Texts-Hermeneutics/dp/0687022797/ref=pd_sim_b_6
p861
I0
sVhttp://www.amazon.com/Asset-Pricing-John-H-Cochrane/dp/0691121370/ref=pd_sim_b_6
p862
I0
sVhttp://www.amazon.com/Nice-Girls-Dont-Corner-Office/dp/0446693316/ref=pd_sim_b_1
p863
F1.0
sVhttp://www.amazon.com/Defense-Lost-Causes-Slavoj-iek/dp/1844674290/ref=pd_sim_b_2
p864
F1.0
sVhttp://www.amazon.com/Everything-Think-About-Politics-Youre/dp/0465036279/ref=pd_sim_b_3
p865
F1.0
sVhttp://www.amazon.com/Principles-Microeconomics-N-Gregory-Mankiw/dp/0324589980/ref=pd_sim_b_6
p866
F1.0
sVhttp://www.amazon.com/Cosmos-Psyche-Intimations-World-View/dp/0452288592/ref=pd_sim_b_1
p867
F1.0
sVhttp://www.amazon.com/Bias-Insider-Exposes-Media-Distort/dp/0060520841/ref=pd_sim_b_1
p868
F1.0
sVhttp://www.amazon.com/Co-Opetition-Revolution-Combines-Competition-Cooperation/dp/0385479506/ref=pd_sim_b_4
p869
F1.0
sVhttp://www.amazon.com/Capital-Critique-Political-Economy-Classics/dp/0140445692/ref=pd_sim_b_2
p870
F1.0
sVhttp://www.amazon.com/Failed-States-Abuse-Assault-Democracy/dp/0805082840/ref=pd_sim_b_5
p871
F1.0
sVhttp://www.amazon.com/Fleeced-Terrorist-Liberals-Do-Nothing-Companies/dp/B003STCOTU/ref=pd_sim_b_3
p872
F1.0
sVhttp://www.amazon.com/Defense-Internment-Racial-Profiling-Terror/dp/0895260514/ref=pd_sim_b_3
p873
F1.0
sVhttp://www.amazon.com/John-Adams-David-McCullough/dp/141657588X/ref=pd_sim_b_1
p874
F1.0
sVhttp://www.amazon.com/Banned-Britain-Beating-Liberal-Blacklist/dp/1427642532/ref=pd_sim_b_6
p875
F1.0
sVhttp://www.amazon.com/40-More-Years-Democrats-Generation/dp/B003D7JWB0/ref=pd_sim_b_2
p876
F1.0
sVhttp://www.amazon.com/Whose-Freedom-Battle-Americas-Important/dp/B002PJ4HG2/ref=pd_sim_b_4
p877
F1.0
sVhttp://www.amazon.com/Maus-II-Survivors-Troubles-Began/dp/0679729771/ref=pd_sim_b_4
p878
F1.0
sVhttp://www.amazon.com/Face-Battle-Study-Agincourt-Waterloo/dp/0140048979/ref=pd_sim_b_1
p879
F1.0
sVhttp://www.amazon.com/Buck-Suck-Come-Back-When/dp/0743234480/ref=pd_sim_b_6
p880
F1.0
sVhttp://www.amazon.com/Angel-Dogs-Mission-Messengers-Service/dp/1577316029/ref=pd_sim_b_3
p881
F1.0
sVhttp://www.amazon.com/Maus-II-Survivors-Troubles-Began/dp/0679729771/ref=pd_sim_b_1
p882
F1.0
sVhttp://www.amazon.com/Power-Ethical-Management-Norman-Peale/dp/0688070620/ref=pd_sim_b_1
p883
F1.0
sVhttp://www.amazon.com/Beyond-White-House-Fighting-Building/dp/B001NXDUAA/ref=pd_sim_b_4
p884
F1.0
sVhttp://www.amazon.com/Pop-Internationalism-Paul-Krugman/dp/0262611333/ref=pd_sim_b_5
p885
F1.0
sVhttp://www.amazon.com/Counterclockwise-Mindful-Health-Power-Possibility/dp/0345502043/ref=pd_sim_b_1
p886
F1.0
sVhttp://www.amazon.com/Making-Economic-Society-Robert-Heilbroner/dp/0131704257/ref=pd_sim_b_1
p887
F1.0
sVhttp://www.amazon.com/Constitution-Besieged-Demise-Lochner-Jurisprudence/dp/0822316420/ref=pd_sim_b_4
p888
F1.0
sVhttp://www.amazon.com/Case-Against-Fed-Murray-Rothbard/dp/094546617X/ref=pd_sim_b_1
p889
F1.0
sVhttp://www.amazon.com/School-Biblical-Evangelism-Ray-Comfort/dp/0882709682/ref=pd_sim_b_3
p890
F1.0
sVhttp://www.amazon.com/Enduring-Principles-American-Founding/dp/0891950958/ref=pd_sim_b_6
p891
F1.0
sVhttp://www.amazon.com/Objectivism-One-Lesson-Introduction-Philosophy/dp/0761843590/ref=pd_sim_b_5
p892
F1.0
sVhttp://www.amazon.com/George-Soros-Globalization/dp/1586482785/ref=pd_sim_b_6
p893
F1.0
sVhttp://www.amazon.com/Oprah-Miracles-New-Earth-Critique/dp/0802489532/ref=pd_sim_b_5
p894
F1.0
sVhttp://www.amazon.com/Distant-Hours-Novel-Kate-Morton/dp/1439152780/ref=pd_sim_b_1
p895
F1.0
sVhttp://www.amazon.com/New-Deal-Raw-Economic-Damaged/dp/1416592377/ref=pd_sim_b_1
p896
F1.0
sVhttp://www.amazon.com/Discovering-Computers-Fundamentals-Shelly-Cashman/dp/1423912101/ref=pd_sim_b_5
p897
F1.0
sVhttp://www.amazon.com/Christmas-Jars-Reunion-Jason-Wright/dp/1606411659/ref=pd_sim_b_2
p898
F1.0
sVhttp://www.amazon.com/Knowledge-Decisions-Thomas-Sowell/dp/0465037380/ref=pd_sim_b_5
p899
F1.0
sVhttp://www.amazon.com/Accoutrements-11633-Carl-Action-Figure/dp/B000TKEL0G/ref=pd_sim_t_1
p900
F1.0
sVhttp://www.amazon.com/Murder-Suicide-Keith-Ablow/dp/0312994893/ref=pd_sim_b_3
p901
F1.0
sVhttp://www.amazon.com/Whats-Matter-California-Cultural-Rumbles/dp/1416531033/ref=pd_sim_b_3
p902
F1.0
sVhttp://www.amazon.com/How-We-Think-John-Dewey/dp/0486298957/ref=pd_sim_b_6
p903
F1.0
sVhttp://www.amazon.com/Civil-Rights-Rhetoric-Thomas-Sowell/dp/0688062695/ref=pd_sim_b_5
p904
F1.0
sVhttp://www.amazon.com/Study-Guide-Mankiws-Principles-Economics/dp/0324591233/ref=pd_sim_b_1
p905
F1.0
sVhttp://www.amazon.com/Law-Rewards-Giving-what-lose/dp/0842381066/ref=pd_sim_b_3
p906
F1.0
sVhttp://www.amazon.com/America-Sale-Depression-Preserving-Sovereignty/dp/1439154783/ref=pd_sim_b_1
p907
F1.0
sVhttp://www.amazon.com/Freefall-America-Markets-Sinking-Economy/dp/0393338959/ref=pd_sim_b_4
p908
I0
sVhttp://www.amazon.com/Uncommon-Learning-Education-Henry-David/dp/0395947979/ref=pd_sim_b_2
p909
I0
sVhttp://www.amazon.com/Extra-Credit-Andrew-Clements/dp/1416949313/ref=pd_sim_b_1
p910
F1.0
sVhttp://www.amazon.com/Conscience-Liberal-Paul-Krugman/dp/0393333132/ref=pd_sim_b_3
p911
F1.0
sVhttp://www.amazon.com/Energy-Beginners-Guide-Guides/dp/1851684522/ref=pd_sim_b_2
p912
F1.0
sVhttp://www.amazon.com/Bacon-Flavored-Toothpicks-Accoutrements-Novelty/dp/B000VF5UYU/ref=pd_sim_t_2
p913
F1.0
sVhttp://www.amazon.com/Liberalism-Social-Action-Great-Philosophy/dp/1573927538/ref=pd_sim_b_6
p914
F1.0
sVhttp://www.amazon.com/Titanic-Nonfiction-Companion-Tonight-Research/dp/0375813578/ref=pd_sim_b_5
p915
F1.0
sVhttp://www.amazon.com/Sarah-Palin-2012-Button-Politcal/dp/B002UM6Q1I/ref=pd_sim_misc_5
p916
F1.0
sVhttp://www.amazon.com/Sure-That-Will-Spend-Eternity/dp/0802427197/ref=pd_sim_b_5
p917
F1.0
sVhttp://www.amazon.com/Living-Beyond-Your-Lifetime-Intentional/dp/0805423362/ref=pd_sim_b_6
p918
F1.0
sVhttp://www.amazon.com/King-Leopolds-Ghost-Heroism-Colonial/dp/0618001905/ref=pd_sim_b_3
p919
I0
sVhttp://www.amazon.com/Angels-Assignment-Perry-Stone/dp/1599797526/ref=pd_sim_b_1
p920
F1.0
sVhttp://www.amazon.com/River-Out-Eden-Darwinian-Science/dp/0465069908/ref=pd_sim_b_4
p921
F1.0
sVhttp://www.amazon.com/Contagious-Divides-Epidemics-Franciscos-Crossroads/dp/0520226291/ref=pd_sim_b_1
p922
I0
sVhttp://www.amazon.com/Power-Plays-Lose-How-Historys-Political/dp/0060004444/ref=pd_sim_b_5
p923
F1.0
sVhttp://www.amazon.com/Down-River-John-Hart/dp/0312945663/ref=pd_sim_b_1
p924
F1.0
sVhttp://www.amazon.com/Hillary-Trap-Looking-Power-Places/dp/1893554651/ref=pd_sim_b_3
p925
F1.0
sVhttp://www.amazon.com/Medium-Massage-Marshall-McLuhan/dp/1584230703/ref=pd_sim_b_4
p926
F1.0
sVhttp://www.amazon.com/Catastrophe-Dick-Morris/dp/B002SB8P2O/ref=pd_sim_b_4
p927
F1.0
sVhttp://www.amazon.com/Cats-Always-Land-Their-Feet/dp/0757305733/ref=pd_sim_b_1
p928
I0
sVhttp://www.amazon.com/Arguing-Idiots-Small-Minds-Government/dp/1416595023/ref=pd_sim_b_1
p929
F1.0
sVhttp://www.amazon.com/Animal-Spirits-Psychology-Economy-Capitalism/dp/069114592X/ref=pd_sim_b_3
p930
F0.33333333333333331
sVhttp://www.amazon.com/KOKO-LOVE-Conversations-Signing-Francine-Patterson/dp/0525463194/ref=pd_sim_b_5
p931
I0
sVhttp://www.amazon.com/Guilty-Liberal-Victims-Assault-America/dp/0307353478/ref=pd_sim_b_5
p932
F1.0
sVhttp://www.amazon.com/Collapse-Common-Good-Americas-Undermines/dp/034543871X/ref=pd_sim_b_2
p933
F1.0
sVhttp://www.amazon.com/Disappearance-Childhood-Neil-Postman/dp/0679751661/ref=pd_sim_b_2
p934
F1.0
sVhttp://www.amazon.com/Agenda-Inside-Clinton-White-House/dp/0743274075/ref=pd_sim_b_6
p935
F1.0
sVhttp://www.amazon.com/Childrens-Book-Virtues-William-Bennett/dp/068481353X/ref=pd_sim_b_1
p936
F1.0
sVhttp://www.amazon.com/Privilege-Adolescent-Princeton-Cultural-Sociology/dp/0691145288/ref=pd_sim_b_1
p937
F1.0
sVhttp://www.amazon.com/Melissa-Doug-Boston-Terrier-Plush/dp/B000NV6D3E/ref=pd_sim_b_1
p938
F1.0
sVhttp://www.amazon.com/Epicenter-2-0-Current-Rumblings-Middle/dp/1414311362/ref=pd_sim_b_6
p939
F1.0
sVhttp://www.amazon.com/Eisenhower-at-War-1943-1945-David/dp/0517065010/ref=pd_sim_b_3
p940
I0
sVhttp://www.amazon.com/Titan-Life-John-Rockefeller-Sr/dp/1400077303/ref=pd_sim_b_1
p941
F1.0
sVhttp://www.amazon.com/Art-War-Sun-Tzu-Hardcover/dp/1934255165/ref=pd_sim_b_6
p942
F1.0
sVhttp://www.amazon.com/Burning-Bright-Tracy-Chevalier/dp/B001P3OLEM/ref=pd_sim_b_4
p943
F1.0
sVhttp://www.amazon.com/Individualism-Old-Great-Books-Philosophy/dp/1573926930/ref=pd_sim_b_2
p944
F1.0
sVhttp://www.amazon.com/Liberalism-Ludwig-von-Mises/dp/1933550848/ref=pd_sim_b_2
p945
F1.0
sVhttp://www.amazon.com/Risk-Darkness-Simon-Serrailler-Mystery/dp/1590202902/ref=pd_sim_b_2
p946
F1.0
sVhttp://www.amazon.com/Lifes-Dominion-Argument-Euthanasia-Individual/dp/0679733191/ref=pd_sim_b_1
p947
F1.0
sVhttp://www.amazon.com/Separation-Church-State-Founders-Meant/dp/1932225412/ref=pd_sim_b_1
p948
F1.0
sVhttp://www.amazon.com/Lifes-Dominion-Argument-Euthanasia-Individual/dp/0679733191/ref=pd_sim_b_3
p949
F1.0
sVhttp://www.amazon.com/Light-Eternity-Perspectives-Heaven/dp/1578562996/ref=pd_sim_b_4
p950
F1.0
sVhttp://www.amazon.com/Campaign-Manager-Running-Winning-Elections/dp/0813344514/ref=pd_sim_b_1
p951
I0
sVhttp://www.amazon.com/Fundamentals-Nursing-Patricia-Potter-FAAN/dp/0323067840/ref=pd_sim_b_6
p952
F1.0
sVhttp://www.amazon.com/My-Life-Bill-Clinton/dp/140003003X/ref=pd_sim_b_2
p953
F1.0
sVhttp://www.amazon.com/Make-Road-Walking-Conversations-Education/dp/0877227756/ref=pd_sim_b_4
p954
F1.0
sVhttp://www.amazon.com/Problem-Hell-America-Genocide-P-S/dp/0061120146/ref=pd_sim_b_3
p955
I0
sVhttp://www.amazon.com/Renegade-Making-President-Richard-Wolffe/dp/0307463125/ref=pd_sim_b_3
p956
I0
sVhttp://www.amazon.com/Sarah-Palin-2012-Collector-Buttons/dp/B001KSTSTA/ref=pd_sim_b_6
p957
F1.0
sVhttp://www.amazon.com/Blind-Watchmaker-Evidence-Evolution-Universe/dp/0393315703/ref=pd_sim_b_5
p958
F1.0
sVhttp://www.amazon.com/Muslim-Mafia-Underworld-Conspiring-Islamize/dp/1935071106/ref=pd_sim_b_4
p959
F1.0
sVhttp://www.amazon.com/Cover-Up-Government-Hiding-Terror/dp/B003H4RBDK/ref=pd_sim_b_2
p960
F1.0
sVhttp://www.amazon.com/Post-American-Presidency-Obama-Administrations-America/dp/B004J8HWWI/ref=pd_sim_b_1
p961
F0.84444444444444444
sVhttp://www.amazon.com/Courageous-Faith-Lessons-Testament-Heroes/dp/0899571328/ref=pd_sim_b_4
p962
I0
sVhttp://www.amazon.com/Carnage-Culture-Landmark-Battles-Western/dp/0385720386/ref=pd_sim_b_3
p963
F1.0
sVhttp://www.amazon.com/Architect-Novel-Frank-Clevenger/dp/031293971X/ref=pd_sim_b_5
p964
F1.0
sVhttp://www.amazon.com/Becoming-Leader-Warren-Bennis/dp/0465014089/ref=pd_sim_b_1
p965
I0
sVhttp://www.amazon.com/Gusher-Lies-Dangerous-Delusions-Independence/dp/B002T450KU/ref=pd_sim_b_1
p966
I0
sVhttp://www.amazon.com/Because-He-Could-Dick-Morris/dp/0060792132/ref=pd_sim_b_4
p967
F1.0
sVhttp://www.amazon.com/Norpro-575-Nutcracker/dp/B000LNQB8G/ref=pd_sim_k_4
p968
I0
sVhttp://www.amazon.com/Art-War-Strategy-Winning-Strategies/dp/0972291482/ref=pd_sim_b_2
p969
F1.0
sVhttp://www.amazon.com/Real-Benjamin-Franklin-American-Classic/dp/0880800011/ref=pd_sim_b_2
p970
F1.0
sVhttp://www.amazon.com/Rational-Optimist-How-Prosperity-Evolves/dp/006145205X/ref=pd_sim_b_3
p971
F1.0
sVhttp://www.amazon.com/I-Survived-Sinking-Titanic-1912/dp/0545206944/ref=pd_sim_b_2
p972
F1.0
sVhttp://www.amazon.com/Lost-Dogs-Michael-Rescue-Redemption/dp/1592405509/ref=pd_sim_b_2
p973
I0
sVhttp://www.amazon.com/Mark-Steyn-Head-Toe-Anatomical/dp/097315702X/ref=pd_sim_b_4
p974
F1.0
sVhttp://www.amazon.com/Law-Worldwide-Value-Second/dp/1583672338/ref=pd_sim_b_5
p975
I0
sVhttp://www.amazon.com/Mostly-Harmless-Econometrics-Empiricists-Companion/dp/0691120358/ref=pd_sim_b_3
p976
F1.0
sVhttp://www.amazon.com/Ever-My-Side-Memoir-Eight/dp/0767932005/ref=pd_sim_b_2
p977
I0
sVhttp://www.amazon.com/SS-Brotherhood-Bell-Nasas-Majic-12/dp/1931882614/ref=pd_sim_b_3
p978
F1.0
sVhttp://www.amazon.com/Logical-Leap-Induction-Physics/dp/0451230051/ref=pd_sim_b_5
p979
F1.0
sVhttp://www.amazon.com/Mask-Command-John-Keegan/dp/0140114068/ref=pd_sim_b_4
p980
F1.0
sVhttp://www.amazon.com/Government-Problem-Essays-Public-Policy/dp/0817954422/ref=pd_sim_b_4
p981
F1.0
sVhttp://www.amazon.com/Seeing-Like-State-Condition-Institution/dp/0300078153/ref=pd_sim_b_4
p982
F1.0
sVhttp://www.amazon.com/Cant-Wait-Till-Christmas-Huckabee/dp/0399255397/ref=pd_sim_b_1
p983
F1.0
sVhttp://www.amazon.com/Happy-Smiley-Affirmation-Great-Compliments/dp/B000MVPBA6/ref=pd_sim_t_2
p984
F1.0
sVhttp://www.amazon.com/Every-Day-Jesus-Believers-Resource/dp/1414300751/ref=pd_sim_b_1
p985
F1.0
sVhttp://www.amazon.com/22-Immutable-Laws-Branding/dp/0060007737/ref=pd_sim_b_1
p986
F1.0
sVhttp://www.amazon.com/Denial-Keith-Ablow/dp/0312965966/ref=pd_sim_b_2
p987
F1.0
sVhttp://www.amazon.com/Money-Possessions-Eternity-Randy-Alcorn/dp/0842353607/ref=pd_sim_b_4
p988
F1.0
sVhttp://www.amazon.com/Study-Guide-Mankiws-Principles-Economics/dp/0324319029/ref=pd_sim_b_3
p989
F1.0
sVhttp://www.amazon.com/Hope-Higher-Ground-Restoring-Greatness/dp/B0030EG16K/ref=pd_sim_b_5
p990
F1.0
sVhttp://www.amazon.com/Common-Sense-Economics-Everyone-Prosperity/dp/0312644892/ref=pd_sim_b_4
p991
F1.0
sVhttp://www.amazon.com/Living-Truth-Transform-Through-Insight/dp/B002U0KPIK/ref=pd_sim_b_2
p992
F1.0
sVhttp://www.amazon.com/Holocaust-Industry-Reflections-Exploitation-Suffering/dp/185984488X/ref=pd_sim_b_1
p993
F1.0
sVhttp://www.amazon.com/Our-Endangered-Values-Americas-Crisis/dp/B001F7ATTY/ref=pd_sim_b_1
p994
F1.0
sVhttp://www.amazon.com/Charlie-Chan-Dead-Contemporary-Fiction-Revised/dp/0142003905/ref=pd_sim_b_2
p995
I0
sVhttp://www.amazon.com/Ezekiel-Option-Political-Thrillers/dp/1414303440/ref=pd_sim_b_6
p996
F1.0
sVhttp://www.amazon.com/Soul-Horse-Blogged-Compelling-Discoveries/dp/1930681046/ref=pd_sim_b_5
p997
I0
sVhttp://www.amazon.com/Last-Days-Political-Thrillers/dp/1414312733/ref=pd_sim_b_5
p998
F1.0
sVhttp://www.amazon.com/Albions-Seed-British-Folkways-Cultural/dp/0195069056/ref=pd_sim_b_1
p999
I0
sVhttp://www.amazon.com/DENIED-Office-Stock-Self-Inking-Rubber/dp/B001VZMX62/ref=pd_sim_op_3
p1000
F1.0
sVhttp://www.amazon.com/Boy-Meets-Girl-Hello-Courtship/dp/1590521676/ref=pd_sim_b_1
p1001
F1.0
sVhttp://www.amazon.com/Idea-Communism-Costas-Douzinas/dp/1844674592/ref=pd_sim_b_6
p1002
F1.0
sVhttp://www.amazon.com/Congress-Its-Members-Roger-Davidson/dp/0872899675/ref=pd_sim_b_1
p1003
F0.0
sVhttp://www.amazon.com/American-Progressivism-Ronald-J-Pestritto/dp/0739123041/ref=pd_sim_b_2
p1004
I0
sVhttp://www.amazon.com/Rameaus-Niece-Cathleen-Schine/dp/054752188X/ref=pd_sim_b_3
p1005
F1.0
sVhttp://www.amazon.com/Paws-Effect-Healing-Power-Dogs/dp/0385528566/ref=pd_sim_b_1
p1006
F1.0
sVhttp://www.amazon.com/Citizenship-Very-Short-Introduction-Introductions/dp/0192802534/ref=pd_sim_b_4
p1007
I0
sVhttp://www.amazon.com/Capitalism-Socialism-Democracy-Second-Schumpeter/dp/189139651X/ref=pd_sim_b_3
p1008
F1.0
sVhttp://www.amazon.com/Embraces-Islams-Sharia-Encounter-Broadsides/dp/159403558X/ref=pd_sim_b_3
p1009
F1.0
sVhttp://www.amazon.com/Giving-How-Each-Change-World/dp/0307266745/ref=pd_sim_b_6
p1010
F1.0
sVhttp://www.amazon.com/Revolt-Defeat-Repeal-Socialist-Programs/dp/0062073303/ref=pd_sim_b_4
p1011
F1.0
sVhttp://www.amazon.com/Shake-Hands-Devil-Failure-Humanity/dp/0786715103/ref=pd_sim_b_2
p1012
F0.80000000000000004
sVhttp://www.amazon.com/Hoodwinked-Economic-Reveals-Financial-Imploded/dp/0307589927/ref=pd_sim_b_2
p1013
F1.0
sVhttp://www.amazon.com/Civilization-Its-Discontents-Sigmund-Freud/dp/1891396250/ref=pd_sim_b_2
p1014
F1.0
sVhttp://www.amazon.com/Full-Frontal-Feminism-Womans-Matters/dp/1580052010/ref=pd_sim_b_1
p1015
F1.0
sVhttp://www.amazon.com/Rescue-Found-Dogs-Mission/dp/1602397724/ref=pd_sim_b_3
p1016
F1.0
sVhttp://www.amazon.com/Good-Grips-Slim-Seafood-Cracker/dp/B000079XWE/ref=pd_sim_k_5
p1017
F1.0
sVhttp://www.amazon.com/Understanding-Institutional-Diversity-Elinor-Ostrom/dp/0691122385/ref=pd_sim_b_1
p1018
F1.0
sVhttp://www.amazon.com/Give-Me-Break-Hucksters-Media/dp/0060529156/ref=pd_sim_b_4
p1019
I0
sVhttp://www.amazon.com/Mistress-Spices-Chitra-Banerjee-Divakaruni/dp/0385482388/ref=pd_sim_b_1
p1020
I0
sVhttp://www.amazon.com/Peoples-History-World-Stone-Millennium/dp/1844672387/ref=pd_sim_b_6
p1021
F1.0
sVhttp://www.amazon.com/Death-Life-Great-American-Cities/dp/067974195X/ref=pd_sim_b_2
p1022
I0
sVhttp://www.amazon.com/Culture-Clash-Revolutionary-Understanding-Relationship/dp/1888047054/ref=pd_sim_b_2
p1023
I0
sVhttp://www.amazon.com/Duke-Company-Pecan-Nut-Cracker/dp/B000FNK8JK/ref=pd_sim_k_2
p1024
I0
sVhttp://www.amazon.com/Dogs-Have-Met-People-Found/dp/B001C46QXS/ref=pd_sim_b_1
p1025
F1.0
sVhttp://www.amazon.com/Quit-Digging-Your-Grave-Knife/dp/1931722781/ref=pd_sim_b_6
p1026
F1.0
sVhttp://www.amazon.com/Elusive-Quest-Growth-Economists-Misadventures/dp/0262550423/ref=pd_sim_b_6
p1027
I0
sVhttp://www.amazon.com/Kissed-Dating-Goodbye-Joshua-Harris/dp/1590521358/ref=pd_sim_b_1
p1028
F1.0
sVhttp://www.amazon.com/American-Fascists-Christian-Right-America/dp/0743284461/ref=pd_sim_b_6
p1029
F1.0
sVhttp://www.amazon.com/Monetary-History-United-States-1867-1960/dp/0691003548/ref=pd_sim_b_6
p1030
F1.0
sVhttp://www.amazon.com/Founding-Fathers-Leadership-Teamwork-Changing/dp/0446674257/ref=pd_sim_b_1
p1031
I0
sVhttp://www.amazon.com/Truth-About-Muhammad-Intolerant-Religion/dp/1596985283/ref=pd_sim_b_3
p1032
F1.0
sVhttp://www.amazon.com/Anti-Obama-Bumper-Sticker-Sorry/dp/B002XPV4FK/ref=pd_sim_misc_3
p1033
F1.0
sVhttp://www.amazon.com/Pedagogy-Freedom-Democracy-Critical-Perspectives/dp/0847690474/ref=pd_sim_b_5
p1034
F1.0
sVhttp://www.amazon.com/Hegel-Variations-Phenomenology-Spirit/dp/1844676161/ref=pd_sim_b_6
p1035
I0
sVhttp://www.amazon.com/Baghdad-America-Life-Lessons-Named/dp/1602392641/ref=pd_sim_b_2
p1036
I0
sVhttp://www.amazon.com/Napoleon-Wellington-Battle-Waterloo-Commanders/dp/0743228324/ref=pd_sim_b_5
p1037
F1.0
sVhttp://www.amazon.com/Barfing-Backseat-12-Survived-Family/dp/0448443287/ref=pd_sim_b_5
p1038
F1.0
sVhttp://www.amazon.com/End-Education-Redefining-Value-School/dp/0679750312/ref=pd_sim_b_3
p1039
F1.0
sVhttp://www.amazon.com/Origin-Species-Charles-Darwin/dp/1551113376/ref=pd_sim_b_3
p1040
F1.0
sVhttp://www.amazon.com/One-Minute-After-Study-Guide/dp/0802463088/ref=pd_sim_b_2
p1041
F1.0
sVhttp://www.amazon.com/Becoming-Artist-Reinventing-Yourself-Creativity/dp/0345456300/ref=pd_sim_b_3
p1042
F1.0
sVhttp://www.amazon.com/Deadline-Randy-Alcorn/dp/1590525922/ref=pd_sim_b_6
p1043
F1.0
sVhttp://www.amazon.com/Progress-Paradox-Better-While-People/dp/0812973038/ref=pd_sim_b_5
p1044
I0
sVhttp://www.amazon.com/Inconvenient-Book-Solutions-Biggest-Problems/dp/1416560440/ref=pd_sim_b_5
p1045
F1.0
sVhttp://www.amazon.com/Anti-Obama-Bumper-Sticker-Working/dp/B002XPNON0/ref=pd_sim_auto_6
p1046
F1.0
sVhttp://www.amazon.com/Masters-Commanders-Four-Titans-1941-1945/dp/0061228583/ref=pd_sim_b_1
p1047
F1.0
sVhttp://www.amazon.com/Peoples-History-United-States-P-S/dp/0061965588/ref=pd_sim_b_1
p1048
F1.0
sVhttp://www.amazon.com/Theory-Moral-Sentiments-Penguin-Classics/dp/0143105922/ref=pd_sim_b_4
p1049
F0.5
sVhttp://www.amazon.com/American-Extremists-Militias-Supremacists-Communists/dp/1573920584/ref=pd_sim_b_1
p1050
F1.0
sVhttp://www.amazon.com/Resilience-Reflections-Burdens-Facing-Adversities/dp/0767931564/ref=pd_sim_b_1
p1051
F1.0
sVhttp://www.amazon.com/1920-Year-Presidents-David-Pietrusza/dp/0786721022/ref=pd_sim_b_2
p1052
I0
sVhttp://www.amazon.com/Complete-Book-Homeopathy-Michael-Weiner/dp/0895294125/ref=pd_sim_b_6
p1053
F1.0
sVhttp://www.amazon.com/Why-Israel-Cant-Wait-Between/dp/1439183015/ref=pd_sim_b_4
p1054
F1.0
sVhttp://www.amazon.com/What-Saw-Revolution-Political-Reagan/dp/0812969898/ref=pd_sim_b_2
p1055
F1.0
sVhttp://www.amazon.com/Libertarian-Reader-Contemporary-Writings-Friedman/dp/0684847671/ref=pd_sim_b_6
p1056
I0
sVhttp://www.amazon.com/Palestine-Joe-Sacco/dp/156097432X/ref=pd_sim_b_5
p1057
F1.0
sVhttp://www.amazon.com/Conservatives-Without-Conscience-John-Dean/dp/B000SOVCAK/ref=pd_sim_b_2
p1058
F1.0
sVhttp://www.amazon.com/One-Minute-After-You-Die/dp/0802463231/ref=pd_sim_b_6
p1059
F1.0
sVhttp://www.amazon.com/Showdown-Evil-Struggle-Against-Tyranny/dp/0973406550/ref=pd_sim_b_2
p1060
F1.0
sVhttp://www.amazon.com/Dont-Think-Elephant-Debate-Progressives/dp/1931498717/ref=pd_sim_b_5
p1061
F1.0
sVhttp://www.amazon.com/Politically-Incorrect-Guide-Islam-Crusades/dp/0895260131/ref=pd_sim_b_5
p1062
F1.0
sVhttp://www.amazon.com/Constitutional-Chaos-Happens-Government-Breaks/dp/1595550402/ref=pd_sim_b_2
p1063
F1.0
sVhttp://www.amazon.com/Merles-Door-Lessons-Freethinking-Dog/dp/0156034506/ref=pd_sim_b_1
p1064
F1.0
sVhttp://www.amazon.com/Oh-Things-Know-Al-Franken/dp/0452284503/ref=pd_sim_b_3
p1065
F1.0
sVhttp://www.amazon.com/Punished-Rewards-Trouble-Incentive-Praise/dp/0618001816/ref=pd_sim_b_3
p1066
F1.0
sVhttp://www.amazon.com/Pearl-Harbor-Pacific-Newt-Gingrich/dp/0312943393/ref=pd_sim_b_1
p1067
F1.0
sVhttp://www.amazon.com/Crash-Proof-2-0-Economic-Collapse/dp/047047453X/ref=pd_sim_b_3
p1068
F1.0
sVhttp://www.amazon.com/Influence-Practice-Robert-B-Cialdini/dp/0205609996/ref=pd_sim_b_2
p1069
I0
sVhttp://www.amazon.com/Ragweed-Poppy-Stories-Avi/dp/0380801671/ref=pd_sim_b_3
p1070
F1.0
sVhttp://www.amazon.com/Man-Letters-Thomas-Sowell/dp/1594031967/ref=pd_sim_b_5
p1071
F1.0
sVhttp://www.amazon.com/Men-Black-Supreme-Destroying-America/dp/0895260506/ref=pd_sim_b_1
p1072
F0.46666666666666667
sVhttp://www.amazon.com/Case-Against-Lawyers-Politicians-Tyranny/dp/0767905059/ref=pd_sim_b_4
p1073
I0
sVhttp://www.amazon.com/Descent-into-Chaos-Building-Afghanistan/dp/B003NHR70I/ref=pd_sim_b_3
p1074
I0
sVhttp://www.amazon.com/Capitalist-Manifesto-Historic-Philosophic-Laissez-Faire/dp/0761832211/ref=pd_sim_b_6
p1075
F1.0
sVhttp://www.amazon.com/Sarah-Palin-2012-Design-Political/dp/B001RI8QKK/ref=pd_sim_misc_5
p1076
F1.0
sVhttp://www.amazon.com/Confessions-Economic-Hit-John-Perkins/dp/0452287081/ref=pd_sim_b_5
p1077
F1.0
sVhttp://www.amazon.com/Dead-Heat-Political-Thrillers-No/dp/1414311621/ref=pd_sim_b_6
p1078
F1.0
sVhttp://www.amazon.com/George-Washingtons-Sacred-Peter-Lillback/dp/0978605268/ref=pd_sim_b_3
p1079
I0
sVhttp://www.amazon.com/Shocked-Bible-Astonishing-Facts-Youve/dp/0849920116/ref=pd_sim_b_3
p1080
F1.0
sVhttp://www.amazon.com/ANTI-CAPITALISTIC-MENTALITY-Works-Ludwig-Mises/dp/0865976716/ref=pd_sim_b_4
p1081
F1.0
sVhttp://www.amazon.com/Shroud-Codex-Jerome-R-Corsi/dp/B0048ELEPE/ref=pd_sim_b_3
p1082
F1.0
sVhttp://www.amazon.com/Childrens-Book-Heroes-William-Bennett/dp/0684834456/ref=pd_sim_b_2
p1083
F1.0
sVhttp://www.amazon.com/CSB-Commodities-BCC1-Clinton-Corkscrew/dp/B001D6L8TC/ref=pd_sim_k_5
p1084
I0
sVhttp://www.amazon.com/Cannibals-Kings-Cultures-Marvin-Harris/dp/067972849X/ref=pd_sim_b_1
p1085
I0
sVhttp://www.amazon.com/Aint-Got-Time-Bleed-Reworking/dp/0451200861/ref=pd_sim_b_4
p1086
F1.0
sVhttp://www.amazon.com/Media-American-Politics-Doris-Graber/dp/1604264608/ref=pd_sim_b_3
p1087
I0
sVhttp://www.amazon.com/Messenger-Lois-Lowry/dp/0385737165/ref=pd_sim_b_1
p1088
F1.0
sVhttp://www.amazon.com/Compulsion-Novel-Keith-Ablow/dp/0312988249/ref=pd_sim_b_4
p1089
F1.0
sVhttp://www.amazon.com/Gender-Elections-Shaping-American-Politics/dp/0521734479/ref=pd_sim_b_3
p1090
I0
sVhttp://www.amazon.com/Man-My-Dreams-Novel/dp/0812975391/ref=pd_sim_b_6
p1091
F1.0
sVhttp://www.amazon.com/Back-Road-Serfdom-Resurgence-Statism/dp/193519190X/ref=pd_sim_b_4
p1092
F1.0
sVhttp://www.amazon.com/Crisis-Neoliberalism-G%C3%A9rard-Dum%C3%A9nil/dp/0674049888/ref=pd_sim_b_5
p1093
F1.0
sVhttp://www.amazon.com/Gathering-Blue-Lois-Lowry/dp/0385732562/ref=pd_sim_b_2
p1094
F1.0
sVhttp://www.amazon.com/Roswell-Reich-Connection-Joseph-Farrell/dp/1935487051/ref=pd_sim_b_5
p1095
F1.0
sVhttp://www.amazon.com/Keynes-Return-Master-Robert-Skidelsky/dp/158648897X/ref=pd_sim_b_1
p1096
I0
sVhttp://www.amazon.com/We-People-Introduction-American-Essentials/dp/0393932664/ref=pd_sim_b_2
p1097
F1.0
sVhttp://www.amazon.com/Shadow-Five-Presidents-Legacy-Watergate/dp/B001O9CH34/ref=pd_sim_b_6
p1098
F1.0
sVhttp://www.amazon.com/Good-Grips-5-Piece-Seafood-Cracker/dp/B00004OCJU/ref=pd_sim_k_1
p1099
F1.0
sVhttp://www.amazon.com/Annual-Editions-Physical-Anthropology-09/dp/0073397814/ref=pd_sim_b_1
p1100
I0
sVhttp://www.amazon.com/Role-Pastors-Christians-Civil-Government/dp/193222503X/ref=pd_sim_b_5
p1101
F1.0
sVhttp://www.amazon.com/Cruel-Usual-Punishment-Terrifying-Implications/dp/1595551611/ref=pd_sim_b_5
p1102
I0
sVhttp://www.amazon.com/How-Fight-Conservative-Daniel-Kurtzman/dp/1402208804/ref=pd_sim_b_4
p1103
I0
sVhttp://www.amazon.com/Barack-Toilet-Novelty-Presidential-Bathroom/dp/B003EN9S58/ref=pd_sim_b_5
p1104
I0
sVhttp://www.amazon.com/Philosophy-Flesh-Embodied-Challenge-Western/dp/0465056741/ref=pd_sim_b_3
p1105
F0.84848484848484851
sVhttp://www.amazon.com/Poppy-Stories-Avi/dp/0380727692/ref=pd_sim_b_2
p1106
F1.0
sVhttp://www.amazon.com/Positive-Thoughts-Successful-Living-Arnold/dp/1578670322/ref=pd_sim_b_6
p1107
I0
sVhttp://www.amazon.com/Ordered-This-Baby-Definitely-Zipzer/dp/0448443740/ref=pd_sim_b_2
p1108
F1.0
sVhttp://www.amazon.com/Hour-Before-Daylight-Memoirs-Boyhood/dp/B0002OUQTY/ref=pd_sim_b_1
p1109
F1.0
sVhttp://www.amazon.com/Profit-Over-People-Neoliberalism-Global/dp/1888363827/ref=pd_sim_b_5
p1110
F0.72727272727272729
sVhttp://www.amazon.com/Bacon-Scented-Soap-Hand-Wonder/dp/B002OFW9YO/ref=pd_sim_t_1
p1111
F1.0
sVhttp://www.amazon.com/Mindfulness-Merloyd-Lawrence-Ellen-Langer/dp/0201523418/ref=pd_sim_b_5
p1112
F1.0
sVhttp://www.amazon.com/Minerva-Monster-Wednesday-Kirwan/dp/1402757182/ref=pd_sim_b_1
p1113
I0
sVhttp://www.amazon.com/Conquer-Your-Fear-Share-Faith/dp/B003TO6EJK/ref=pd_sim_b_4
p1114
F1.0
sVhttp://www.amazon.com/Armchair-Economist-Economics-Everyday-Life/dp/0029177766/ref=pd_sim_b_3
p1115
F1.0
sVhttp://www.amazon.com/Fatal-Conceit-Errors-Socialism-Collected/dp/0226320669/ref=pd_sim_b_3
p1116
F1.0
sVhttp://www.amazon.com/Armchair-Economist-Economics-Everyday-Life/dp/0029177766/ref=pd_sim_b_1
p1117
F1.0
sVhttp://www.amazon.com/Words-That-Work-What-People/dp/1401309291/ref=pd_sim_b_1
p1118
F1.0
sVhttp://www.amazon.com/Lies-Lying-Liars-Tell-Them/dp/0452285216/ref=pd_sim_b_6
p1119
F1.0
sVhttp://www.amazon.com/Major-Pettigrews-Last-Stand-Readers/dp/0812981227/ref=pd_sim_b_4
p1120
I0
sVhttp://www.amazon.com/POSH-Lucy-Jackson/dp/0312377983/ref=pd_sim_b_3
p1121
I0
sVhttp://www.amazon.com/Liberal-Lies-About-American-History/dp/B0035G029A/ref=pd_sim_b_1
p1122
F1.0
sVhttp://www.amazon.com/Girl-Dragon-Tattoo-Stieg-Larsson/dp/0307454541/ref=pd_sim_b_2
p1123
F1.0
sVhttp://www.amazon.com/Art-Not-Being-Governed-Anarchist/dp/0300169175/ref=pd_sim_b_2
p1124
F1.0
sVhttp://www.amazon.com/Florence-Arabia-Novel-Christopher-Buckley/dp/0812972260/ref=pd_sim_b_1
p1125
I0
sVhttp://www.amazon.com/America-Heart-Reflections-Family-Faith/dp/0062010964/ref=pd_sim_b_5
p1126
I0
sVhttp://www.amazon.com/Mechanical-Bride-Facsimile-Marshall-McLuhan/dp/1584232439/ref=pd_sim_b_5
p1127
F1.0
sVhttp://www.amazon.com/Associated-Press-Guide-News-Writing/dp/0768919797/ref=pd_sim_b_2
p1128
F1.0
sVhttp://www.amazon.com/Country-Company-Harvard-Business-Classics/dp/1422133400/ref=pd_sim_b_6
p1129
F1.0
sVhttp://www.amazon.com/Animal-Angels-Amazing-Acts-Compassion/dp/1573241423/ref=pd_sim_b_5
p1130
I0
sVhttp://www.amazon.com/Days-Infamy-Newt-Gingrich/dp/B001W6RRIY/ref=pd_sim_b_3
p1131
F1.0
sVhttp://www.amazon.com/Pathfinders-History-Exploration-Felipe-Fern%C3%A1ndez-Armesto/dp/0393330915/ref=pd_sim_b_4
p1132
F1.0
sVhttp://www.amazon.com/Government-Big-Enough-Give-Everything/dp/B001HDTKZA/ref=pd_sim_auto_6
p1133
F1.0
sVhttp://www.amazon.com/Daughter-Venice-Donna-Jo-Napoli/dp/0440229286/ref=pd_sim_b_2
p1134
I0
sVhttp://www.amazon.com/Breakfast-at-Tiffanys-Truman-Capote/dp/0679745653/ref=pd_sim_b_1
p1135
F1.0
sVhttp://www.amazon.com/Last-Founding-Father-Nations-Greatness/dp/B003R4ZBJG/ref=pd_sim_b_1
p1136
I0
s.